
kernel:     file format elf32-i386

Disassembly of section .text:

00100000 <bcheck>:
  release(&buf_table_lock);
}

int
bcheck(uint dev, uint sector)
{
  100000:	55                   	push   %ebp
  100001:	89 e5                	mov    %esp,%ebp
  100003:	56                   	push   %esi
  100004:	53                   	push   %ebx
  100005:	83 ec 10             	sub    $0x10,%esp
  100008:	8b 5d 08             	mov    0x8(%ebp),%ebx
  10000b:	8b 75 0c             	mov    0xc(%ebp),%esi
  struct buf *b;
  acquire(&buf_table_lock);
  10000e:	c7 04 24 80 8f 10 00 	movl   $0x108f80,(%esp)
  100015:	e8 c6 45 00 00       	call   1045e0 <acquire>

  for(b = bufhead.next; b != &bufhead; b = b->next){
  10001a:	a1 70 78 10 00       	mov    0x107870,%eax
  10001f:	3d 60 78 10 00       	cmp    $0x107860,%eax
  100024:	75 0c                	jne    100032 <bcheck+0x32>
  100026:	eb 2c                	jmp    100054 <bcheck+0x54>
  100028:	8b 40 10             	mov    0x10(%eax),%eax
  10002b:	3d 60 78 10 00       	cmp    $0x107860,%eax
  100030:	74 22                	je     100054 <bcheck+0x54>
    if(b->dev == dev && b->sector == sector){
  100032:	39 58 04             	cmp    %ebx,0x4(%eax)
  100035:	75 f1                	jne    100028 <bcheck+0x28>
  100037:	39 70 08             	cmp    %esi,0x8(%eax)
  10003a:	75 ec                	jne    100028 <bcheck+0x28>
         release(&buf_table_lock);
  10003c:	c7 04 24 80 8f 10 00 	movl   $0x108f80,(%esp)
  100043:	e8 58 45 00 00       	call   1045a0 <release>
         return 1;
      }
    }
  release(&buf_table_lock);
  return 0;
}
  100048:	83 c4 10             	add    $0x10,%esp
  struct buf *b;
  acquire(&buf_table_lock);

  for(b = bufhead.next; b != &bufhead; b = b->next){
    if(b->dev == dev && b->sector == sector){
         release(&buf_table_lock);
  10004b:	b8 01 00 00 00       	mov    $0x1,%eax
         return 1;
      }
    }
  release(&buf_table_lock);
  return 0;
}
  100050:	5b                   	pop    %ebx
  100051:	5e                   	pop    %esi
  100052:	5d                   	pop    %ebp
  100053:	c3                   	ret    
    if(b->dev == dev && b->sector == sector){
         release(&buf_table_lock);
         return 1;
      }
    }
  release(&buf_table_lock);
  100054:	c7 04 24 80 8f 10 00 	movl   $0x108f80,(%esp)
  10005b:	e8 40 45 00 00       	call   1045a0 <release>
  return 0;
}
  100060:	83 c4 10             	add    $0x10,%esp
    if(b->dev == dev && b->sector == sector){
         release(&buf_table_lock);
         return 1;
      }
    }
  release(&buf_table_lock);
  100063:	31 c0                	xor    %eax,%eax
  return 0;
}
  100065:	5b                   	pop    %ebx
  100066:	5e                   	pop    %esi
  100067:	5d                   	pop    %ebp
  100068:	c3                   	ret    
  100069:	8d b4 26 00 00 00 00 	lea    0x0(%esi),%esi

00100070 <brelse>:
}

// Release the buffer buf.
void
brelse(struct buf *b)
{
  100070:	55                   	push   %ebp
  100071:	89 e5                	mov    %esp,%ebp
  100073:	53                   	push   %ebx
  100074:	83 ec 04             	sub    $0x4,%esp
  100077:	8b 5d 08             	mov    0x8(%ebp),%ebx
  if((b->flags & B_BUSY) == 0)
  10007a:	f6 03 01             	testb  $0x1,(%ebx)
  10007d:	74 58                	je     1000d7 <brelse+0x67>
    panic("brelse");

  acquire(&buf_table_lock);
  10007f:	c7 04 24 80 8f 10 00 	movl   $0x108f80,(%esp)
  100086:	e8 55 45 00 00       	call   1045e0 <acquire>

  b->next->prev = b->prev;
  10008b:	8b 53 10             	mov    0x10(%ebx),%edx
  10008e:	8b 43 0c             	mov    0xc(%ebx),%eax
  b->next = bufhead.next;
  b->prev = &bufhead;
  bufhead.next->prev = b;
  bufhead.next = b;

  b->flags &= ~B_BUSY;
  100091:	83 23 fe             	andl   $0xfffffffe,(%ebx)
  if((b->flags & B_BUSY) == 0)
    panic("brelse");

  acquire(&buf_table_lock);

  b->next->prev = b->prev;
  100094:	89 42 0c             	mov    %eax,0xc(%edx)
  b->prev->next = b->next;
  100097:	8b 43 0c             	mov    0xc(%ebx),%eax
  b->next = bufhead.next;
  b->prev = &bufhead;
  10009a:	c7 43 0c 60 78 10 00 	movl   $0x107860,0xc(%ebx)
    panic("brelse");

  acquire(&buf_table_lock);

  b->next->prev = b->prev;
  b->prev->next = b->next;
  1000a1:	89 50 10             	mov    %edx,0x10(%eax)
  b->next = bufhead.next;
  1000a4:	a1 70 78 10 00       	mov    0x107870,%eax
  1000a9:	89 43 10             	mov    %eax,0x10(%ebx)
  b->prev = &bufhead;
  bufhead.next->prev = b;
  1000ac:	a1 70 78 10 00       	mov    0x107870,%eax
  bufhead.next = b;
  1000b1:	89 1d 70 78 10 00    	mov    %ebx,0x107870

  b->next->prev = b->prev;
  b->prev->next = b->next;
  b->next = bufhead.next;
  b->prev = &bufhead;
  bufhead.next->prev = b;
  1000b7:	89 58 0c             	mov    %ebx,0xc(%eax)
  bufhead.next = b;

  b->flags &= ~B_BUSY;
  wakeup(buf);
  1000ba:	c7 04 24 80 7a 10 00 	movl   $0x107a80,(%esp)
  1000c1:	e8 fa 32 00 00       	call   1033c0 <wakeup>

  release(&buf_table_lock);
  1000c6:	c7 45 08 80 8f 10 00 	movl   $0x108f80,0x8(%ebp)
}
  1000cd:	83 c4 04             	add    $0x4,%esp
  1000d0:	5b                   	pop    %ebx
  1000d1:	5d                   	pop    %ebp
  bufhead.next = b;

  b->flags &= ~B_BUSY;
  wakeup(buf);

  release(&buf_table_lock);
  1000d2:	e9 c9 44 00 00       	jmp    1045a0 <release>
// Release the buffer buf.
void
brelse(struct buf *b)
{
  if((b->flags & B_BUSY) == 0)
    panic("brelse");
  1000d7:	c7 04 24 20 67 10 00 	movl   $0x106720,(%esp)
  1000de:	e8 2d 08 00 00       	call   100910 <panic>
  1000e3:	8d b6 00 00 00 00    	lea    0x0(%esi),%esi
  1000e9:	8d bc 27 00 00 00 00 	lea    0x0(%edi),%edi

001000f0 <bwrite>:
}

// Write buf's contents to disk.  Must be locked.
void
bwrite(struct buf *b)
{
  1000f0:	55                   	push   %ebp
  1000f1:	89 e5                	mov    %esp,%ebp
  1000f3:	83 ec 08             	sub    $0x8,%esp
  1000f6:	8b 55 08             	mov    0x8(%ebp),%edx
  if((b->flags & B_BUSY) == 0)
  1000f9:	8b 02                	mov    (%edx),%eax
  1000fb:	a8 01                	test   $0x1,%al
  1000fd:	74 0e                	je     10010d <bwrite+0x1d>
    panic("bwrite");
  b->flags |= B_DIRTY;
  1000ff:	83 c8 04             	or     $0x4,%eax
  100102:	89 02                	mov    %eax,(%edx)
  ide_rw(b);
  100104:	89 55 08             	mov    %edx,0x8(%ebp)
}
  100107:	c9                   	leave  
bwrite(struct buf *b)
{
  if((b->flags & B_BUSY) == 0)
    panic("bwrite");
  b->flags |= B_DIRTY;
  ide_rw(b);
  100108:	e9 13 20 00 00       	jmp    102120 <ide_rw>
// Write buf's contents to disk.  Must be locked.
void
bwrite(struct buf *b)
{
  if((b->flags & B_BUSY) == 0)
    panic("bwrite");
  10010d:	c7 04 24 27 67 10 00 	movl   $0x106727,(%esp)
  100114:	e8 f7 07 00 00       	call   100910 <panic>
  100119:	8d b4 26 00 00 00 00 	lea    0x0(%esi),%esi

00100120 <bread>:
}

// Return a B_BUSY buf with the contents of the indicated disk sector.
struct buf*
bread(uint dev, uint sector)
{
  100120:	55                   	push   %ebp
  100121:	89 e5                	mov    %esp,%ebp
  100123:	57                   	push   %edi
  100124:	56                   	push   %esi
  100125:	53                   	push   %ebx
  100126:	83 ec 0c             	sub    $0xc,%esp
  100129:	8b 75 08             	mov    0x8(%ebp),%esi
  10012c:	8b 7d 0c             	mov    0xc(%ebp),%edi
static struct buf*
bget(uint dev, uint sector)
{
  struct buf *b;

  acquire(&buf_table_lock);
  10012f:	c7 04 24 80 8f 10 00 	movl   $0x108f80,(%esp)
  100136:	e8 a5 44 00 00       	call   1045e0 <acquire>

 loop:
  // Try for cached block.
  for(b = bufhead.next; b != &bufhead; b = b->next){
  10013b:	8b 1d 70 78 10 00    	mov    0x107870,%ebx
  100141:	81 fb 60 78 10 00    	cmp    $0x107860,%ebx
  100147:	75 12                	jne    10015b <bread+0x3b>
  100149:	eb 3d                	jmp    100188 <bread+0x68>
  10014b:	90                   	nop    
  10014c:	8d 74 26 00          	lea    0x0(%esi),%esi
  100150:	8b 5b 10             	mov    0x10(%ebx),%ebx
  100153:	81 fb 60 78 10 00    	cmp    $0x107860,%ebx
  100159:	74 2d                	je     100188 <bread+0x68>
    if((b->flags & (B_BUSY|B_VALID)) &&
  10015b:	8b 03                	mov    (%ebx),%eax
  10015d:	a8 03                	test   $0x3,%al
  10015f:	74 ef                	je     100150 <bread+0x30>
  100161:	3b 73 04             	cmp    0x4(%ebx),%esi
  100164:	75 ea                	jne    100150 <bread+0x30>
  100166:	3b 7b 08             	cmp    0x8(%ebx),%edi
  100169:	75 e5                	jne    100150 <bread+0x30>
       b->dev == dev && b->sector == sector){
      if(b->flags & B_BUSY){
  10016b:	a8 01                	test   $0x1,%al
  10016d:	8d 76 00             	lea    0x0(%esi),%esi
  100170:	74 7b                	je     1001ed <bread+0xcd>
        sleep(buf, &buf_table_lock);
  100172:	c7 44 24 04 80 8f 10 	movl   $0x108f80,0x4(%esp)
  100179:	00 
  10017a:	c7 04 24 80 7a 10 00 	movl   $0x107a80,(%esp)
  100181:	e8 9a 38 00 00       	call   103a20 <sleep>
  100186:	eb b3                	jmp    10013b <bread+0x1b>
      return b;
    }
  }

  // Allocate fresh block.
  for(b = bufhead.prev; b != &bufhead; b = b->prev){
  100188:	8b 1d 6c 78 10 00    	mov    0x10786c,%ebx
  10018e:	81 fb 60 78 10 00    	cmp    $0x107860,%ebx
  100194:	75 0d                	jne    1001a3 <bread+0x83>
  100196:	eb 49                	jmp    1001e1 <bread+0xc1>
  100198:	8b 5b 0c             	mov    0xc(%ebx),%ebx
  10019b:	81 fb 60 78 10 00    	cmp    $0x107860,%ebx
  1001a1:	74 3e                	je     1001e1 <bread+0xc1>
    if((b->flags & B_BUSY) == 0){
  1001a3:	f6 03 01             	testb  $0x1,(%ebx)
  1001a6:	75 f0                	jne    100198 <bread+0x78>
      b->flags = B_BUSY;
  1001a8:	c7 03 01 00 00 00    	movl   $0x1,(%ebx)
      b->dev = dev;
  1001ae:	89 73 04             	mov    %esi,0x4(%ebx)
      b->sector = sector;
  1001b1:	89 7b 08             	mov    %edi,0x8(%ebx)
      release(&buf_table_lock);
  1001b4:	c7 04 24 80 8f 10 00 	movl   $0x108f80,(%esp)
  1001bb:	e8 e0 43 00 00       	call   1045a0 <release>
bread(uint dev, uint sector)
{
  struct buf *b;

  b = bget(dev, sector);
  if(!(b->flags & B_VALID))
  1001c0:	f6 03 02             	testb  $0x2,(%ebx)
  1001c3:	74 0a                	je     1001cf <bread+0xaf>
    ide_rw(b);
  return b;
}
  1001c5:	83 c4 0c             	add    $0xc,%esp
  1001c8:	89 d8                	mov    %ebx,%eax
  1001ca:	5b                   	pop    %ebx
  1001cb:	5e                   	pop    %esi
  1001cc:	5f                   	pop    %edi
  1001cd:	5d                   	pop    %ebp
  1001ce:	c3                   	ret    
{
  struct buf *b;

  b = bget(dev, sector);
  if(!(b->flags & B_VALID))
    ide_rw(b);
  1001cf:	89 1c 24             	mov    %ebx,(%esp)
  1001d2:	e8 49 1f 00 00       	call   102120 <ide_rw>
  return b;
}
  1001d7:	83 c4 0c             	add    $0xc,%esp
  1001da:	89 d8                	mov    %ebx,%eax
  1001dc:	5b                   	pop    %ebx
  1001dd:	5e                   	pop    %esi
  1001de:	5f                   	pop    %edi
  1001df:	5d                   	pop    %ebp
  1001e0:	c3                   	ret    
      b->sector = sector;
      release(&buf_table_lock);
      return b;
    }
  }
  panic("bget: no buffers");
  1001e1:	c7 04 24 2e 67 10 00 	movl   $0x10672e,(%esp)
  1001e8:	e8 23 07 00 00       	call   100910 <panic>
       b->dev == dev && b->sector == sector){
      if(b->flags & B_BUSY){
        sleep(buf, &buf_table_lock);
        goto loop;
      }
      b->flags |= B_BUSY;
  1001ed:	83 c8 01             	or     $0x1,%eax
  1001f0:	89 03                	mov    %eax,(%ebx)
      release(&buf_table_lock);
  1001f2:	c7 04 24 80 8f 10 00 	movl   $0x108f80,(%esp)
  1001f9:	e8 a2 43 00 00       	call   1045a0 <release>
  1001fe:	eb c0                	jmp    1001c0 <bread+0xa0>

00100200 <binit>:
// bufhead->tail is least recently used.
struct buf bufhead;

void
binit(void)
{
  100200:	55                   	push   %ebp
  100201:	89 e5                	mov    %esp,%ebp
  100203:	83 ec 08             	sub    $0x8,%esp
  struct buf *b;

  initlock(&buf_table_lock, "buf_table");
  100206:	c7 44 24 04 3f 67 10 	movl   $0x10673f,0x4(%esp)
  10020d:	00 
  10020e:	c7 04 24 80 8f 10 00 	movl   $0x108f80,(%esp)
  100215:	e8 06 42 00 00       	call   104420 <initlock>

  // Create linked list of buffers
  bufhead.prev = &bufhead;
  10021a:	ba 80 7a 10 00       	mov    $0x107a80,%edx
  10021f:	b9 60 78 10 00       	mov    $0x107860,%ecx
  100224:	c7 05 6c 78 10 00 60 	movl   $0x107860,0x10786c
  10022b:	78 10 00 
  10022e:	eb 04                	jmp    100234 <binit+0x34>
  bufhead.next = &bufhead;
  for(b = buf; b < buf+NBUF; b++){
  100230:	89 d1                	mov    %edx,%ecx
  100232:	89 c2                	mov    %eax,%edx
  100234:	8d 82 18 02 00 00    	lea    0x218(%edx),%eax
  10023a:	3d 70 8f 10 00       	cmp    $0x108f70,%eax
    b->next = bufhead.next;
    b->prev = &bufhead;
  10023f:	c7 42 0c 60 78 10 00 	movl   $0x107860,0xc(%edx)

  // Create linked list of buffers
  bufhead.prev = &bufhead;
  bufhead.next = &bufhead;
  for(b = buf; b < buf+NBUF; b++){
    b->next = bufhead.next;
  100246:	89 4a 10             	mov    %ecx,0x10(%edx)
    b->prev = &bufhead;
    bufhead.next->prev = b;
  100249:	89 51 0c             	mov    %edx,0xc(%ecx)
  initlock(&buf_table_lock, "buf_table");

  // Create linked list of buffers
  bufhead.prev = &bufhead;
  bufhead.next = &bufhead;
  for(b = buf; b < buf+NBUF; b++){
  10024c:	75 e2                	jne    100230 <binit+0x30>
  10024e:	c7 05 70 78 10 00 58 	movl   $0x108d58,0x107870
  100255:	8d 10 00 
    b->next = bufhead.next;
    b->prev = &bufhead;
    bufhead.next->prev = b;
    bufhead.next = b;
  }
}
  100258:	c9                   	leave  
  100259:	c3                   	ret    
  10025a:	90                   	nop    
  10025b:	90                   	nop    
  10025c:	90                   	nop    
  10025d:	90                   	nop    
  10025e:	90                   	nop    
  10025f:	90                   	nop    

00100260 <console_init>:
  return target - n;
}

void
console_init(void)
{
  100260:	55                   	push   %ebp
  100261:	89 e5                	mov    %esp,%ebp
  100263:	83 ec 08             	sub    $0x8,%esp
  initlock(&console_lock, "console");
  100266:	c7 44 24 04 49 67 10 	movl   $0x106749,0x4(%esp)
  10026d:	00 
  10026e:	c7 04 24 c0 77 10 00 	movl   $0x1077c0,(%esp)
  100275:	e8 a6 41 00 00       	call   104420 <initlock>
  initlock(&input.lock, "console input");
  10027a:	c7 44 24 04 51 67 10 	movl   $0x106751,0x4(%esp)
  100281:	00 
  100282:	c7 04 24 c0 8f 10 00 	movl   $0x108fc0,(%esp)
  100289:	e8 92 41 00 00       	call   104420 <initlock>

  devsw[CONSOLE].write = console_write;
  devsw[CONSOLE].read = console_read;
  use_console_lock = 1;

  pic_enable(IRQ_KBD);
  10028e:	c7 04 24 01 00 00 00 	movl   $0x1,(%esp)
console_init(void)
{
  initlock(&console_lock, "console");
  initlock(&input.lock, "console input");

  devsw[CONSOLE].write = console_write;
  100295:	c7 05 2c 9a 10 00 80 	movl   $0x100680,0x109a2c
  10029c:	06 10 00 
  devsw[CONSOLE].read = console_read;
  10029f:	c7 05 28 9a 10 00 d0 	movl   $0x1002d0,0x109a28
  1002a6:	02 10 00 
  use_console_lock = 1;
  1002a9:	c7 05 a4 77 10 00 01 	movl   $0x1,0x1077a4
  1002b0:	00 00 00 

  pic_enable(IRQ_KBD);
  1002b3:	e8 68 2b 00 00       	call   102e20 <pic_enable>
  ioapic_enable(IRQ_KBD, 0);
  1002b8:	c7 44 24 04 00 00 00 	movl   $0x0,0x4(%esp)
  1002bf:	00 
  1002c0:	c7 04 24 01 00 00 00 	movl   $0x1,(%esp)
  1002c7:	e8 44 20 00 00       	call   102310 <ioapic_enable>
}
  1002cc:	c9                   	leave  
  1002cd:	c3                   	ret    
  1002ce:	66 90                	xchg   %ax,%ax

001002d0 <console_read>:
  release(&input.lock);
}

int
console_read(struct inode *ip, char *dst, int n)
{
  1002d0:	55                   	push   %ebp
  1002d1:	89 e5                	mov    %esp,%ebp
  1002d3:	57                   	push   %edi
  1002d4:	56                   	push   %esi
  1002d5:	53                   	push   %ebx
  1002d6:	83 ec 0c             	sub    $0xc,%esp
  1002d9:	8b 5d 10             	mov    0x10(%ebp),%ebx
  uint target;
  int c;

  iunlock(ip);
  1002dc:	8b 45 08             	mov    0x8(%ebp),%eax
  release(&input.lock);
}

int
console_read(struct inode *ip, char *dst, int n)
{
  1002df:	8b 75 0c             	mov    0xc(%ebp),%esi
  uint target;
  int c;

  iunlock(ip);
  target = n;
  1002e2:	89 df                	mov    %ebx,%edi
console_read(struct inode *ip, char *dst, int n)
{
  uint target;
  int c;

  iunlock(ip);
  1002e4:	89 04 24             	mov    %eax,(%esp)
  1002e7:	e8 24 1a 00 00       	call   101d10 <iunlock>
  target = n;
  acquire(&input.lock);
  1002ec:	c7 04 24 c0 8f 10 00 	movl   $0x108fc0,(%esp)
  1002f3:	e8 e8 42 00 00       	call   1045e0 <acquire>
  while(n > 0){
  1002f8:	85 db                	test   %ebx,%ebx
  1002fa:	7f 25                	jg     100321 <console_read+0x51>
  1002fc:	e9 af 00 00 00       	jmp    1003b0 <console_read+0xe0>
    while(input.r == input.w){
      if(cp->killed){
  100301:	e8 3a 32 00 00       	call   103540 <curproc>
  100306:	8b 40 1c             	mov    0x1c(%eax),%eax
  100309:	85 c0                	test   %eax,%eax
  10030b:	75 4e                	jne    10035b <console_read+0x8b>
        release(&input.lock);
        ilock(ip);
        return -1;
      }
      sleep(&input.r, &input.lock);
  10030d:	c7 44 24 04 c0 8f 10 	movl   $0x108fc0,0x4(%esp)
  100314:	00 
  100315:	c7 04 24 74 90 10 00 	movl   $0x109074,(%esp)
  10031c:	e8 ff 36 00 00       	call   103a20 <sleep>

  iunlock(ip);
  target = n;
  acquire(&input.lock);
  while(n > 0){
    while(input.r == input.w){
  100321:	8b 15 74 90 10 00    	mov    0x109074,%edx
  100327:	3b 15 78 90 10 00    	cmp    0x109078,%edx
  10032d:	74 d2                	je     100301 <console_read+0x31>
        ilock(ip);
        return -1;
      }
      sleep(&input.r, &input.lock);
    }
    c = input.buf[input.r++ % INPUT_BUF];
  10032f:	89 d0                	mov    %edx,%eax
  100331:	83 e0 7f             	and    $0x7f,%eax
  100334:	0f b6 88 f4 8f 10 00 	movzbl 0x108ff4(%eax),%ecx
  10033b:	8d 42 01             	lea    0x1(%edx),%eax
  10033e:	a3 74 90 10 00       	mov    %eax,0x109074
    if(c == C('D')){  // EOF
  100343:	80 f9 04             	cmp    $0x4,%cl
  100346:	74 39                	je     100381 <console_read+0xb1>
        input.r--;
      }
      break;
    }
    *dst++ = c;
    --n;
  100348:	83 eb 01             	sub    $0x1,%ebx
    if(c == '\n')
  10034b:	80 f9 0a             	cmp    $0xa,%cl
        // caller gets a 0-byte result.
        input.r--;
      }
      break;
    }
    *dst++ = c;
  10034e:	88 0e                	mov    %cl,(%esi)
    --n;
    if(c == '\n')
  100350:	74 39                	je     10038b <console_read+0xbb>
  int c;

  iunlock(ip);
  target = n;
  acquire(&input.lock);
  while(n > 0){
  100352:	85 db                	test   %ebx,%ebx
  100354:	74 37                	je     10038d <console_read+0xbd>
        // caller gets a 0-byte result.
        input.r--;
      }
      break;
    }
    *dst++ = c;
  100356:	83 c6 01             	add    $0x1,%esi
  100359:	eb c6                	jmp    100321 <console_read+0x51>
  target = n;
  acquire(&input.lock);
  while(n > 0){
    while(input.r == input.w){
      if(cp->killed){
        release(&input.lock);
  10035b:	c7 04 24 c0 8f 10 00 	movl   $0x108fc0,(%esp)
        ilock(ip);
  100362:	bb ff ff ff ff       	mov    $0xffffffff,%ebx
  target = n;
  acquire(&input.lock);
  while(n > 0){
    while(input.r == input.w){
      if(cp->killed){
        release(&input.lock);
  100367:	e8 34 42 00 00       	call   1045a0 <release>
        ilock(ip);
  10036c:	8b 45 08             	mov    0x8(%ebp),%eax
  10036f:	89 04 24             	mov    %eax,(%esp)
  100372:	e8 09 1a 00 00       	call   101d80 <ilock>
  }
  release(&input.lock);
  ilock(ip);

  return target - n;
}
  100377:	83 c4 0c             	add    $0xc,%esp
  10037a:	89 d8                	mov    %ebx,%eax
  10037c:	5b                   	pop    %ebx
  10037d:	5e                   	pop    %esi
  10037e:	5f                   	pop    %edi
  10037f:	5d                   	pop    %ebp
  100380:	c3                   	ret    
      }
      sleep(&input.r, &input.lock);
    }
    c = input.buf[input.r++ % INPUT_BUF];
    if(c == C('D')){  // EOF
      if(n < target){
  100381:	39 df                	cmp    %ebx,%edi
  100383:	76 06                	jbe    10038b <console_read+0xbb>
        // Save ^D for next time, to make sure
        // caller gets a 0-byte result.
        input.r--;
  100385:	89 15 74 90 10 00    	mov    %edx,0x109074
      }
      break;
    }
    *dst++ = c;
    --n;
    if(c == '\n')
  10038b:	29 df                	sub    %ebx,%edi
  10038d:	89 fb                	mov    %edi,%ebx
      break;
  }
  release(&input.lock);
  10038f:	c7 04 24 c0 8f 10 00 	movl   $0x108fc0,(%esp)
  100396:	e8 05 42 00 00       	call   1045a0 <release>
  ilock(ip);
  10039b:	8b 45 08             	mov    0x8(%ebp),%eax
  10039e:	89 04 24             	mov    %eax,(%esp)
  1003a1:	e8 da 19 00 00       	call   101d80 <ilock>

  return target - n;
}
  1003a6:	83 c4 0c             	add    $0xc,%esp
  1003a9:	89 d8                	mov    %ebx,%eax
  1003ab:	5b                   	pop    %ebx
  1003ac:	5e                   	pop    %esi
  1003ad:	5f                   	pop    %edi
  1003ae:	5d                   	pop    %ebp
  1003af:	c3                   	ret    

  iunlock(ip);
  target = n;
  acquire(&input.lock);
  while(n > 0){
    while(input.r == input.w){
  1003b0:	31 db                	xor    %ebx,%ebx
  1003b2:	eb db                	jmp    10038f <console_read+0xbf>
  1003b4:	8d b6 00 00 00 00    	lea    0x0(%esi),%esi
  1003ba:	8d bf 00 00 00 00    	lea    0x0(%edi),%edi

001003c0 <cons_putc>:
  crt[pos] = ' ' | 0x0700;
}

void
cons_putc(int c)
{
  1003c0:	55                   	push   %ebp
  1003c1:	89 e5                	mov    %esp,%ebp
  1003c3:	57                   	push   %edi
  1003c4:	56                   	push   %esi
  1003c5:	53                   	push   %ebx
  1003c6:	83 ec 0c             	sub    $0xc,%esp
  if(panicked){
  1003c9:	8b 15 a0 77 10 00    	mov    0x1077a0,%edx
  crt[pos] = ' ' | 0x0700;
}

void
cons_putc(int c)
{
  1003cf:	8b 75 08             	mov    0x8(%ebp),%esi
  if(panicked){
  1003d2:	85 d2                	test   %edx,%edx
  1003d4:	0f 85 d9 00 00 00    	jne    1004b3 <cons_putc+0xf3>
static inline uchar
inb(ushort port)
{
  uchar data;

  asm volatile("in %1,%0" : "=a" (data) : "d" (port));
  1003da:	ba 79 03 00 00       	mov    $0x379,%edx
  1003df:	ec                   	in     (%dx),%al
    cli();
    for(;;)
      ;
  1003e0:	31 c9                	xor    %ecx,%ecx
static void
lpt_putc(int c)
{
  int i;

  for(i = 0; !(inb(LPTPORT+1) & 0x80) && i < 12800; i++)
  1003e2:	84 c0                	test   %al,%al
  1003e4:	79 0d                	jns    1003f3 <cons_putc+0x33>
  1003e6:	eb 15                	jmp    1003fd <cons_putc+0x3d>
  1003e8:	83 c1 01             	add    $0x1,%ecx
  1003eb:	81 f9 00 32 00 00    	cmp    $0x3200,%ecx
  1003f1:	74 0a                	je     1003fd <cons_putc+0x3d>
  1003f3:	ba 79 03 00 00       	mov    $0x379,%edx
  1003f8:	ec                   	in     (%dx),%al
  1003f9:	84 c0                	test   %al,%al
  1003fb:	79 eb                	jns    1003e8 <cons_putc+0x28>
    ;
  if(c == BACKSPACE)
  1003fd:	81 fe 00 01 00 00    	cmp    $0x100,%esi
  100403:	b8 08 00 00 00       	mov    $0x8,%eax
  100408:	74 02                	je     10040c <cons_putc+0x4c>
  10040a:	89 f0                	mov    %esi,%eax
}

static inline void
outb(ushort port, uchar data)
{
  asm volatile("out %0,%1" : : "a" (data), "d" (port));
  10040c:	ba 78 03 00 00       	mov    $0x378,%edx
  100411:	ee                   	out    %al,(%dx)
static inline uchar
inb(ushort port)
{
  uchar data;

  asm volatile("in %1,%0" : "=a" (data) : "d" (port));
  100412:	b8 0d 00 00 00       	mov    $0xd,%eax
  100417:	b2 7a                	mov    $0x7a,%dl
  100419:	ee                   	out    %al,(%dx)
  10041a:	b8 08 00 00 00       	mov    $0x8,%eax
  10041f:	ee                   	out    %al,(%dx)
  100420:	b9 d4 03 00 00       	mov    $0x3d4,%ecx
  100425:	b8 0e 00 00 00       	mov    $0xe,%eax
  10042a:	89 ca                	mov    %ecx,%edx
  10042c:	ee                   	out    %al,(%dx)
  10042d:	bf d5 03 00 00       	mov    $0x3d5,%edi
  100432:	89 fa                	mov    %edi,%edx
  100434:	ec                   	in     (%dx),%al
{
  int pos;
  
  // Cursor position: col + 80*row.
  outb(CRTPORT, 14);
  pos = inb(CRTPORT+1) << 8;
  100435:	0f b6 d8             	movzbl %al,%ebx
}

static inline void
outb(ushort port, uchar data)
{
  asm volatile("out %0,%1" : : "a" (data), "d" (port));
  100438:	89 ca                	mov    %ecx,%edx
  10043a:	c1 e3 08             	shl    $0x8,%ebx
  10043d:	b8 0f 00 00 00       	mov    $0xf,%eax
  100442:	ee                   	out    %al,(%dx)
static inline uchar
inb(ushort port)
{
  uchar data;

  asm volatile("in %1,%0" : "=a" (data) : "d" (port));
  100443:	89 fa                	mov    %edi,%edx
  100445:	ec                   	in     (%dx),%al
  outb(CRTPORT, 15);
  pos |= inb(CRTPORT+1);
  100446:	0f b6 c0             	movzbl %al,%eax
  100449:	09 c3                	or     %eax,%ebx

  if(c == '\n')
  10044b:	83 fe 0a             	cmp    $0xa,%esi
  10044e:	74 66                	je     1004b6 <cons_putc+0xf6>
    pos += 80 - pos%80;
  else if(c == BACKSPACE){
  100450:	81 fe 00 01 00 00    	cmp    $0x100,%esi
  100456:	0f 84 b9 00 00 00    	je     100515 <cons_putc+0x155>
    if(pos > 0)
      crt[--pos] = ' ' | 0x0700;
  } else
    crt[pos++] = (c&0xff) | 0x0700;  // black on white
  10045c:	89 f0                	mov    %esi,%eax
  10045e:	66 25 ff 00          	and    $0xff,%ax
  100462:	80 cc 07             	or     $0x7,%ah
  100465:	66 89 84 1b 00 80 0b 	mov    %ax,0xb8000(%ebx,%ebx,1)
  10046c:	00 
  10046d:	83 c3 01             	add    $0x1,%ebx
  
  if((pos/80) >= 24){  // Scroll up.
  100470:	81 fb 7f 07 00 00    	cmp    $0x77f,%ebx
  100476:	8d b4 1b 00 80 0b 00 	lea    0xb8000(%ebx,%ebx,1),%esi
  10047d:	7f 4e                	jg     1004cd <cons_putc+0x10d>
}

static inline void
outb(ushort port, uchar data)
{
  asm volatile("out %0,%1" : : "a" (data), "d" (port));
  10047f:	b9 d4 03 00 00       	mov    $0x3d4,%ecx
  100484:	b8 0e 00 00 00       	mov    $0xe,%eax
  100489:	89 ca                	mov    %ecx,%edx
  10048b:	ee                   	out    %al,(%dx)
  
  outb(CRTPORT, 14);
  outb(CRTPORT+1, pos>>8);
  outb(CRTPORT, 15);
  outb(CRTPORT+1, pos);
  crt[pos] = ' ' | 0x0700;
  10048c:	bf d5 03 00 00       	mov    $0x3d5,%edi
  100491:	89 d8                	mov    %ebx,%eax
  100493:	c1 f8 08             	sar    $0x8,%eax
  100496:	89 fa                	mov    %edi,%edx
  100498:	ee                   	out    %al,(%dx)
  100499:	b8 0f 00 00 00       	mov    $0xf,%eax
  10049e:	89 ca                	mov    %ecx,%edx
  1004a0:	ee                   	out    %al,(%dx)
  1004a1:	89 d8                	mov    %ebx,%eax
  1004a3:	89 fa                	mov    %edi,%edx
  1004a5:	ee                   	out    %al,(%dx)
  1004a6:	66 c7 06 20 07       	movw   $0x720,(%esi)
      ;
  }

  lpt_putc(c);
  cga_putc(c);
}
  1004ab:	83 c4 0c             	add    $0xc,%esp
  1004ae:	5b                   	pop    %ebx
  1004af:	5e                   	pop    %esi
  1004b0:	5f                   	pop    %edi
  1004b1:	5d                   	pop    %ebp
  1004b2:	c3                   	ret    
}

static inline void
cli(void)
{
  asm volatile("cli");
  1004b3:	fa                   	cli    
  1004b4:	eb fe                	jmp    1004b4 <cons_putc+0xf4>
  pos = inb(CRTPORT+1) << 8;
  outb(CRTPORT, 15);
  pos |= inb(CRTPORT+1);

  if(c == '\n')
    pos += 80 - pos%80;
  1004b6:	89 d8                	mov    %ebx,%eax
  1004b8:	ba 67 66 66 66       	mov    $0x66666667,%edx
  1004bd:	f7 ea                	imul   %edx
  1004bf:	c1 ea 05             	shr    $0x5,%edx
  1004c2:	8d 14 92             	lea    (%edx,%edx,4),%edx
  1004c5:	c1 e2 04             	shl    $0x4,%edx
  1004c8:	8d 5a 50             	lea    0x50(%edx),%ebx
  1004cb:	eb a3                	jmp    100470 <cons_putc+0xb0>
  } else
    crt[pos++] = (c&0xff) | 0x0700;  // black on white
  
  if((pos/80) >= 24){  // Scroll up.
    memmove(crt, crt+80, sizeof(crt[0])*23*80);
    pos -= 80;
  1004cd:	83 eb 50             	sub    $0x50,%ebx
      crt[--pos] = ' ' | 0x0700;
  } else
    crt[pos++] = (c&0xff) | 0x0700;  // black on white
  
  if((pos/80) >= 24){  // Scroll up.
    memmove(crt, crt+80, sizeof(crt[0])*23*80);
  1004d0:	c7 44 24 08 60 0e 00 	movl   $0xe60,0x8(%esp)
  1004d7:	00 
    pos -= 80;
    memset(crt+pos, 0, sizeof(crt[0])*(24*80 - pos));
  1004d8:	8d b4 1b 00 80 0b 00 	lea    0xb8000(%ebx,%ebx,1),%esi
      crt[--pos] = ' ' | 0x0700;
  } else
    crt[pos++] = (c&0xff) | 0x0700;  // black on white
  
  if((pos/80) >= 24){  // Scroll up.
    memmove(crt, crt+80, sizeof(crt[0])*23*80);
  1004df:	c7 44 24 04 a0 80 0b 	movl   $0xb80a0,0x4(%esp)
  1004e6:	00 
  1004e7:	c7 04 24 00 80 0b 00 	movl   $0xb8000,(%esp)
  1004ee:	e8 fd 41 00 00       	call   1046f0 <memmove>
    pos -= 80;
    memset(crt+pos, 0, sizeof(crt[0])*(24*80 - pos));
  1004f3:	b8 80 07 00 00       	mov    $0x780,%eax
  1004f8:	29 d8                	sub    %ebx,%eax
  1004fa:	01 c0                	add    %eax,%eax
  1004fc:	89 44 24 08          	mov    %eax,0x8(%esp)
  100500:	c7 44 24 04 00 00 00 	movl   $0x0,0x4(%esp)
  100507:	00 
  100508:	89 34 24             	mov    %esi,(%esp)
  10050b:	e8 30 41 00 00       	call   104640 <memset>
  100510:	e9 6a ff ff ff       	jmp    10047f <cons_putc+0xbf>
  pos |= inb(CRTPORT+1);

  if(c == '\n')
    pos += 80 - pos%80;
  else if(c == BACKSPACE){
    if(pos > 0)
  100515:	85 db                	test   %ebx,%ebx
  100517:	8d b4 1b 00 80 0b 00 	lea    0xb8000(%ebx,%ebx,1),%esi
  10051e:	0f 8e 5b ff ff ff    	jle    10047f <cons_putc+0xbf>
      crt[--pos] = ' ' | 0x0700;
  100524:	83 eb 01             	sub    $0x1,%ebx
  100527:	66 c7 84 1b 00 80 0b 	movw   $0x720,0xb8000(%ebx,%ebx,1)
  10052e:	00 20 07 
  100531:	e9 3a ff ff ff       	jmp    100470 <cons_putc+0xb0>
  100536:	8d 76 00             	lea    0x0(%esi),%esi
  100539:	8d bc 27 00 00 00 00 	lea    0x0(%edi),%edi

00100540 <console_intr>:

#define C(x)  ((x)-'@')  // Control-x

void
console_intr(int (*getc)(void))
{
  100540:	55                   	push   %ebp
  100541:	89 e5                	mov    %esp,%ebp
  100543:	56                   	push   %esi
  100544:	53                   	push   %ebx
  100545:	83 ec 10             	sub    $0x10,%esp
  100548:	8b 75 08             	mov    0x8(%ebp),%esi
  int c;

  acquire(&input.lock);
  10054b:	c7 04 24 c0 8f 10 00 	movl   $0x108fc0,(%esp)
  100552:	e8 89 40 00 00       	call   1045e0 <acquire>
  while((c = getc()) >= 0){
  100557:	ff d6                	call   *%esi
  100559:	85 c0                	test   %eax,%eax
  10055b:	89 c3                	mov    %eax,%ebx
  10055d:	0f 88 90 00 00 00    	js     1005f3 <console_intr+0xb3>
    switch(c){
  100563:	83 fb 10             	cmp    $0x10,%ebx
  100566:	0f 84 d4 00 00 00    	je     100640 <console_intr+0x100>
  10056c:	83 fb 15             	cmp    $0x15,%ebx
  10056f:	90                   	nop    
  100570:	0f 84 b6 00 00 00    	je     10062c <console_intr+0xec>
  100576:	83 fb 08             	cmp    $0x8,%ebx
  100579:	0f 84 cb 00 00 00    	je     10064a <console_intr+0x10a>
        input.e--;
        cons_putc(BACKSPACE);
      }
      break;
    default:
      if(c != 0 && input.e-input.r < INPUT_BUF){
  10057f:	85 db                	test   %ebx,%ebx
  100581:	74 d4                	je     100557 <console_intr+0x17>
  100583:	8b 15 7c 90 10 00    	mov    0x10907c,%edx
  100589:	89 d0                	mov    %edx,%eax
  10058b:	2b 05 74 90 10 00    	sub    0x109074,%eax
  100591:	83 f8 7f             	cmp    $0x7f,%eax
  100594:	77 c1                	ja     100557 <console_intr+0x17>
        input.buf[input.e++ % INPUT_BUF] = c;
  100596:	89 d0                	mov    %edx,%eax
  100598:	83 e0 7f             	and    $0x7f,%eax
  10059b:	88 98 f4 8f 10 00    	mov    %bl,0x108ff4(%eax)
  1005a1:	8d 42 01             	lea    0x1(%edx),%eax
  1005a4:	a3 7c 90 10 00       	mov    %eax,0x10907c
        cons_putc(c);
  1005a9:	89 1c 24             	mov    %ebx,(%esp)
  1005ac:	e8 0f fe ff ff       	call   1003c0 <cons_putc>
        if(c == '\n' || c == C('D') || input.e == input.r+INPUT_BUF){
  1005b1:	83 fb 0a             	cmp    $0xa,%ebx
  1005b4:	0f 84 ba 00 00 00    	je     100674 <console_intr+0x134>
  1005ba:	83 fb 04             	cmp    $0x4,%ebx
  1005bd:	0f 84 b1 00 00 00    	je     100674 <console_intr+0x134>
  1005c3:	a1 74 90 10 00       	mov    0x109074,%eax
  1005c8:	8b 15 7c 90 10 00    	mov    0x10907c,%edx
  1005ce:	83 e8 80             	sub    $0xffffff80,%eax
  1005d1:	39 c2                	cmp    %eax,%edx
  1005d3:	75 82                	jne    100557 <console_intr+0x17>
          input.w = input.e;
  1005d5:	89 15 78 90 10 00    	mov    %edx,0x109078
          wakeup(&input.r);
  1005db:	c7 04 24 74 90 10 00 	movl   $0x109074,(%esp)
  1005e2:	e8 d9 2d 00 00       	call   1033c0 <wakeup>
console_intr(int (*getc)(void))
{
  int c;

  acquire(&input.lock);
  while((c = getc()) >= 0){
  1005e7:	ff d6                	call   *%esi
  1005e9:	85 c0                	test   %eax,%eax
  1005eb:	89 c3                	mov    %eax,%ebx
  1005ed:	0f 89 70 ff ff ff    	jns    100563 <console_intr+0x23>
        }
      }
      break;
    }
  }
  release(&input.lock);
  1005f3:	c7 45 08 c0 8f 10 00 	movl   $0x108fc0,0x8(%ebp)
}
  1005fa:	83 c4 10             	add    $0x10,%esp
  1005fd:	5b                   	pop    %ebx
  1005fe:	5e                   	pop    %esi
  1005ff:	5d                   	pop    %ebp
        }
      }
      break;
    }
  }
  release(&input.lock);
  100600:	e9 9b 3f 00 00       	jmp    1045a0 <release>
    switch(c){
    case C('P'):  // Process listing.
      procdump();
      break;
    case C('U'):  // Kill line.
      while(input.e != input.w &&
  100605:	8d 50 ff             	lea    -0x1(%eax),%edx
  100608:	89 d0                	mov    %edx,%eax
  10060a:	83 e0 7f             	and    $0x7f,%eax
  10060d:	80 b8 f4 8f 10 00 0a 	cmpb   $0xa,0x108ff4(%eax)
  100614:	0f 84 3d ff ff ff    	je     100557 <console_intr+0x17>
            input.buf[(input.e-1) % INPUT_BUF] != '\n'){
        input.e--;
  10061a:	89 15 7c 90 10 00    	mov    %edx,0x10907c
        cons_putc(BACKSPACE);
  100620:	c7 04 24 00 01 00 00 	movl   $0x100,(%esp)
  100627:	e8 94 fd ff ff       	call   1003c0 <cons_putc>
    switch(c){
    case C('P'):  // Process listing.
      procdump();
      break;
    case C('U'):  // Kill line.
      while(input.e != input.w &&
  10062c:	a1 7c 90 10 00       	mov    0x10907c,%eax
  100631:	3b 05 78 90 10 00    	cmp    0x109078,%eax
  100637:	75 cc                	jne    100605 <console_intr+0xc5>
  100639:	e9 19 ff ff ff       	jmp    100557 <console_intr+0x17>
  10063e:	66 90                	xchg   %ax,%ax

  acquire(&input.lock);
  while((c = getc()) >= 0){
    switch(c){
    case C('P'):  // Process listing.
      procdump();
  100640:	e8 3b 2e 00 00       	call   103480 <procdump>
  100645:	e9 0d ff ff ff       	jmp    100557 <console_intr+0x17>
        input.e--;
        cons_putc(BACKSPACE);
      }
      break;
    case C('H'):  // Backspace
      if(input.e != input.w){
  10064a:	a1 7c 90 10 00       	mov    0x10907c,%eax
  10064f:	3b 05 78 90 10 00    	cmp    0x109078,%eax
  100655:	0f 84 fc fe ff ff    	je     100557 <console_intr+0x17>
        input.e--;
  10065b:	83 e8 01             	sub    $0x1,%eax
  10065e:	a3 7c 90 10 00       	mov    %eax,0x10907c
        cons_putc(BACKSPACE);
  100663:	c7 04 24 00 01 00 00 	movl   $0x100,(%esp)
  10066a:	e8 51 fd ff ff       	call   1003c0 <cons_putc>
  10066f:	e9 e3 fe ff ff       	jmp    100557 <console_intr+0x17>
      break;
    default:
      if(c != 0 && input.e-input.r < INPUT_BUF){
        input.buf[input.e++ % INPUT_BUF] = c;
        cons_putc(c);
        if(c == '\n' || c == C('D') || input.e == input.r+INPUT_BUF){
  100674:	8b 15 7c 90 10 00    	mov    0x10907c,%edx
  10067a:	e9 56 ff ff ff       	jmp    1005d5 <console_intr+0x95>
  10067f:	90                   	nop    

00100680 <console_write>:
    release(&console_lock);
}

int
console_write(struct inode *ip, char *buf, int n)
{
  100680:	55                   	push   %ebp
  100681:	89 e5                	mov    %esp,%ebp
  100683:	57                   	push   %edi
  100684:	56                   	push   %esi
  100685:	53                   	push   %ebx
  100686:	83 ec 0c             	sub    $0xc,%esp
  int i;

  iunlock(ip);
  100689:	8b 45 08             	mov    0x8(%ebp),%eax
    release(&console_lock);
}

int
console_write(struct inode *ip, char *buf, int n)
{
  10068c:	8b 75 10             	mov    0x10(%ebp),%esi
  10068f:	8b 7d 0c             	mov    0xc(%ebp),%edi
  int i;

  iunlock(ip);
  100692:	89 04 24             	mov    %eax,(%esp)
  100695:	e8 76 16 00 00       	call   101d10 <iunlock>
  acquire(&console_lock);
  10069a:	c7 04 24 c0 77 10 00 	movl   $0x1077c0,(%esp)
  1006a1:	e8 3a 3f 00 00       	call   1045e0 <acquire>
  for(i = 0; i < n; i++)
  1006a6:	85 f6                	test   %esi,%esi
  1006a8:	7e 19                	jle    1006c3 <console_write+0x43>
  1006aa:	31 db                	xor    %ebx,%ebx
  1006ac:	8d 74 26 00          	lea    0x0(%esi),%esi
    cons_putc(buf[i] & 0xff);
  1006b0:	0f b6 04 3b          	movzbl (%ebx,%edi,1),%eax
{
  int i;

  iunlock(ip);
  acquire(&console_lock);
  for(i = 0; i < n; i++)
  1006b4:	83 c3 01             	add    $0x1,%ebx
    cons_putc(buf[i] & 0xff);
  1006b7:	89 04 24             	mov    %eax,(%esp)
  1006ba:	e8 01 fd ff ff       	call   1003c0 <cons_putc>
{
  int i;

  iunlock(ip);
  acquire(&console_lock);
  for(i = 0; i < n; i++)
  1006bf:	39 f3                	cmp    %esi,%ebx
  1006c1:	75 ed                	jne    1006b0 <console_write+0x30>
    cons_putc(buf[i] & 0xff);
  release(&console_lock);
  1006c3:	c7 04 24 c0 77 10 00 	movl   $0x1077c0,(%esp)
  1006ca:	e8 d1 3e 00 00       	call   1045a0 <release>
  ilock(ip);
  1006cf:	8b 45 08             	mov    0x8(%ebp),%eax
  1006d2:	89 04 24             	mov    %eax,(%esp)
  1006d5:	e8 a6 16 00 00       	call   101d80 <ilock>

  return n;
}
  1006da:	83 c4 0c             	add    $0xc,%esp
  1006dd:	89 f0                	mov    %esi,%eax
  1006df:	5b                   	pop    %ebx
  1006e0:	5e                   	pop    %esi
  1006e1:	5f                   	pop    %edi
  1006e2:	5d                   	pop    %ebp
  1006e3:	c3                   	ret    
  1006e4:	8d b6 00 00 00 00    	lea    0x0(%esi),%esi
  1006ea:	8d bf 00 00 00 00    	lea    0x0(%edi),%edi

001006f0 <printint>:
  cga_putc(c);
}

void
printint(int xx, int base, int sgn)
{
  1006f0:	55                   	push   %ebp
  1006f1:	89 e5                	mov    %esp,%ebp
  1006f3:	57                   	push   %edi
  1006f4:	56                   	push   %esi
  1006f5:	53                   	push   %ebx
  1006f6:	83 ec 1c             	sub    $0x1c,%esp
  static char digits[] = "0123456789ABCDEF";
  char buf[16];
  int i = 0, neg = 0;
  uint x;

  if(sgn && xx < 0){
  1006f9:	8b 5d 10             	mov    0x10(%ebp),%ebx
  cga_putc(c);
}

void
printint(int xx, int base, int sgn)
{
  1006fc:	8b 45 08             	mov    0x8(%ebp),%eax
  1006ff:	8b 7d 0c             	mov    0xc(%ebp),%edi
  static char digits[] = "0123456789ABCDEF";
  char buf[16];
  int i = 0, neg = 0;
  uint x;

  if(sgn && xx < 0){
  100702:	85 db                	test   %ebx,%ebx
  100704:	74 04                	je     10070a <printint+0x1a>
  100706:	85 c0                	test   %eax,%eax
  100708:	78 52                	js     10075c <printint+0x6c>
    neg = 1;
    x = 0 - xx;
  } else {
    x = xx;
  10070a:	c7 45 e0 00 00 00 00 	movl   $0x0,-0x20(%ebp)
  100711:	31 db                	xor    %ebx,%ebx
  100713:	8d 75 e4             	lea    -0x1c(%ebp),%esi
  }

  do{
    buf[i++] = digits[x % base];
  100716:	31 d2                	xor    %edx,%edx
  100718:	f7 f7                	div    %edi
  10071a:	89 c1                	mov    %eax,%ecx
  10071c:	0f b6 82 79 67 10 00 	movzbl 0x106779(%edx),%eax
  100723:	88 04 33             	mov    %al,(%ebx,%esi,1)
  100726:	83 c3 01             	add    $0x1,%ebx
  }while((x /= base) != 0);
  100729:	85 c9                	test   %ecx,%ecx
  10072b:	89 c8                	mov    %ecx,%eax
  10072d:	75 e7                	jne    100716 <printint+0x26>
  if(neg)
  10072f:	8b 4d e0             	mov    -0x20(%ebp),%ecx
  100732:	85 c9                	test   %ecx,%ecx
  100734:	74 08                	je     10073e <printint+0x4e>
    buf[i++] = '-';
  100736:	c6 44 1d e4 2d       	movb   $0x2d,-0x1c(%ebp,%ebx,1)
  10073b:	83 c3 01             	add    $0x1,%ebx
  10073e:	8d 1c 1e             	lea    (%esi,%ebx,1),%ebx

  while(--i >= 0)
    cons_putc(buf[i]);
  100741:	0f be 43 ff          	movsbl -0x1(%ebx),%eax
  100745:	83 eb 01             	sub    $0x1,%ebx
  100748:	89 04 24             	mov    %eax,(%esp)
  10074b:	e8 70 fc ff ff       	call   1003c0 <cons_putc>
    buf[i++] = digits[x % base];
  }while((x /= base) != 0);
  if(neg)
    buf[i++] = '-';

  while(--i >= 0)
  100750:	39 f3                	cmp    %esi,%ebx
  100752:	75 ed                	jne    100741 <printint+0x51>
    cons_putc(buf[i]);
}
  100754:	83 c4 1c             	add    $0x1c,%esp
  100757:	5b                   	pop    %ebx
  100758:	5e                   	pop    %esi
  100759:	5f                   	pop    %edi
  10075a:	5d                   	pop    %ebp
  10075b:	c3                   	ret    
  int i = 0, neg = 0;
  uint x;

  if(sgn && xx < 0){
    neg = 1;
    x = 0 - xx;
  10075c:	f7 d8                	neg    %eax
  10075e:	c7 45 e0 01 00 00 00 	movl   $0x1,-0x20(%ebp)
  100765:	eb aa                	jmp    100711 <printint+0x21>
  100767:	89 f6                	mov    %esi,%esi
  100769:	8d bc 27 00 00 00 00 	lea    0x0(%edi),%edi

00100770 <cprintf>:
}

// Print to the console. only understands %d, %x, %p, %s.
void
cprintf(char *fmt, ...)
{
  100770:	55                   	push   %ebp
  100771:	89 e5                	mov    %esp,%ebp
  100773:	57                   	push   %edi
  100774:	56                   	push   %esi
  100775:	53                   	push   %ebx
  100776:	83 ec 1c             	sub    $0x1c,%esp
  int i, c, state, locking;
  uint *argp;
  char *s;

  locking = use_console_lock;
  100779:	a1 a4 77 10 00       	mov    0x1077a4,%eax
  if(locking)
  10077e:	85 c0                	test   %eax,%eax
{
  int i, c, state, locking;
  uint *argp;
  char *s;

  locking = use_console_lock;
  100780:	89 45 ec             	mov    %eax,-0x14(%ebp)
  if(locking)
  100783:	0f 85 6c 01 00 00    	jne    1008f5 <cprintf+0x185>
    acquire(&console_lock);

  argp = (uint*)(void*)&fmt + 1;
  state = 0;
  for(i = 0; fmt[i]; i++){
  100789:	8b 55 08             	mov    0x8(%ebp),%edx
  10078c:	89 55 e8             	mov    %edx,-0x18(%ebp)
  10078f:	0f b6 02             	movzbl (%edx),%eax
  100792:	84 c0                	test   %al,%al
  100794:	74 43                	je     1007d9 <cprintf+0x69>

  locking = use_console_lock;
  if(locking)
    acquire(&console_lock);

  argp = (uint*)(void*)&fmt + 1;
  100796:	8d 55 0c             	lea    0xc(%ebp),%edx
  state = 0;
  for(i = 0; fmt[i]; i++){
    c = fmt[i] & 0xff;
  100799:	0f b6 d8             	movzbl %al,%ebx

  locking = use_console_lock;
  if(locking)
    acquire(&console_lock);

  argp = (uint*)(void*)&fmt + 1;
  10079c:	89 55 f0             	mov    %edx,-0x10(%ebp)
  state = 0;
  for(i = 0; fmt[i]; i++){
    c = fmt[i] & 0xff;
  10079f:	31 ff                	xor    %edi,%edi
    switch(state){
    case 0:
      if(c == '%')
  1007a1:	83 fb 25             	cmp    $0x25,%ebx
  1007a4:	0f 85 87 00 00 00    	jne    100831 <cprintf+0xc1>
  1007aa:	ba 25 00 00 00       	mov    $0x25,%edx
  1007af:	8b 75 e8             	mov    -0x18(%ebp),%esi
  1007b2:	01 fe                	add    %edi,%esi
  if(locking)
    acquire(&console_lock);

  argp = (uint*)(void*)&fmt + 1;
  state = 0;
  for(i = 0; fmt[i]; i++){
  1007b4:	83 c7 01             	add    $0x1,%edi
  1007b7:	0f b6 46 01          	movzbl 0x1(%esi),%eax
  1007bb:	84 c0                	test   %al,%al
  1007bd:	74 1a                	je     1007d9 <cprintf+0x69>
    c = fmt[i] & 0xff;
    switch(state){
  1007bf:	85 d2                	test   %edx,%edx
    acquire(&console_lock);

  argp = (uint*)(void*)&fmt + 1;
  state = 0;
  for(i = 0; fmt[i]; i++){
    c = fmt[i] & 0xff;
  1007c1:	0f b6 d8             	movzbl %al,%ebx
    switch(state){
  1007c4:	74 db                	je     1007a1 <cprintf+0x31>
  1007c6:	83 fa 25             	cmp    $0x25,%edx
  1007c9:	74 29                	je     1007f4 <cprintf+0x84>
        cons_putc('%');
        break;
      default:
        // Print unknown % sequence to draw attention.
        cons_putc('%');
        cons_putc(c);
  1007cb:	83 c6 01             	add    $0x1,%esi
  if(locking)
    acquire(&console_lock);

  argp = (uint*)(void*)&fmt + 1;
  state = 0;
  for(i = 0; fmt[i]; i++){
  1007ce:	83 c7 01             	add    $0x1,%edi
  1007d1:	0f b6 46 01          	movzbl 0x1(%esi),%eax
  1007d5:	84 c0                	test   %al,%al
  1007d7:	75 e6                	jne    1007bf <cprintf+0x4f>
      state = 0;
      break;
    }
  }

  if(locking)
  1007d9:	8b 75 ec             	mov    -0x14(%ebp),%esi
  1007dc:	85 f6                	test   %esi,%esi
  1007de:	74 0c                	je     1007ec <cprintf+0x7c>
    release(&console_lock);
  1007e0:	c7 04 24 c0 77 10 00 	movl   $0x1077c0,(%esp)
  1007e7:	e8 b4 3d 00 00       	call   1045a0 <release>
}
  1007ec:	83 c4 1c             	add    $0x1c,%esp
  1007ef:	5b                   	pop    %ebx
  1007f0:	5e                   	pop    %esi
  1007f1:	5f                   	pop    %edi
  1007f2:	5d                   	pop    %ebp
  1007f3:	c3                   	ret    
      else
        cons_putc(c);
      break;
    
    case '%':
      switch(c){
  1007f4:	83 fb 70             	cmp    $0x70,%ebx
  1007f7:	74 57                	je     100850 <cprintf+0xe0>
  1007f9:	7f 45                	jg     100840 <cprintf+0xd0>
  1007fb:	83 fb 25             	cmp    $0x25,%ebx
  1007fe:	66 90                	xchg   %ax,%ax
  100800:	0f 84 d8 00 00 00    	je     1008de <cprintf+0x16e>
  100806:	83 fb 64             	cmp    $0x64,%ebx
  100809:	8d b4 26 00 00 00 00 	lea    0x0(%esi),%esi
  100810:	0f 84 9e 00 00 00    	je     1008b4 <cprintf+0x144>
      case '%':
        cons_putc('%');
        break;
      default:
        // Print unknown % sequence to draw attention.
        cons_putc('%');
  100816:	c7 04 24 25 00 00 00 	movl   $0x25,(%esp)
  10081d:	8d 76 00             	lea    0x0(%esi),%esi
  100820:	e8 9b fb ff ff       	call   1003c0 <cons_putc>
        cons_putc(c);
  100825:	89 1c 24             	mov    %ebx,(%esp)
  100828:	e8 93 fb ff ff       	call   1003c0 <cons_putc>
  10082d:	31 d2                	xor    %edx,%edx
  10082f:	eb 9a                	jmp    1007cb <cprintf+0x5b>
    switch(state){
    case 0:
      if(c == '%')
        state = '%';
      else
        cons_putc(c);
  100831:	89 1c 24             	mov    %ebx,(%esp)
  100834:	e8 87 fb ff ff       	call   1003c0 <cons_putc>
  100839:	31 d2                	xor    %edx,%edx
  10083b:	e9 6f ff ff ff       	jmp    1007af <cprintf+0x3f>
      break;
    
    case '%':
      switch(c){
  100840:	83 fb 73             	cmp    $0x73,%ebx
  100843:	74 35                	je     10087a <cprintf+0x10a>
  100845:	83 fb 78             	cmp    $0x78,%ebx
  100848:	75 cc                	jne    100816 <cprintf+0xa6>
  10084a:	8d b6 00 00 00 00    	lea    0x0(%esi),%esi
      case 'd':
        printint(*argp++, 10, 1);
        break;
      case 'x':
      case 'p':
        printint(*argp++, 16, 0);
  100850:	8b 55 f0             	mov    -0x10(%ebp),%edx
  100853:	8b 02                	mov    (%edx),%eax
  100855:	83 c2 04             	add    $0x4,%edx
  100858:	89 55 f0             	mov    %edx,-0x10(%ebp)
  10085b:	c7 44 24 08 00 00 00 	movl   $0x0,0x8(%esp)
  100862:	00 
  100863:	c7 44 24 04 10 00 00 	movl   $0x10,0x4(%esp)
  10086a:	00 
  10086b:	89 04 24             	mov    %eax,(%esp)
  10086e:	e8 7d fe ff ff       	call   1006f0 <printint>
  100873:	31 d2                	xor    %edx,%edx
  100875:	e9 51 ff ff ff       	jmp    1007cb <cprintf+0x5b>
        break;
      case 's':
        s = (char*)*argp++;
  10087a:	8b 55 f0             	mov    -0x10(%ebp),%edx
  10087d:	8b 02                	mov    (%edx),%eax
  10087f:	83 c2 04             	add    $0x4,%edx
  100882:	89 55 f0             	mov    %edx,-0x10(%ebp)
        if(s == 0)
  100885:	ba 5f 67 10 00       	mov    $0x10675f,%edx
  10088a:	85 c0                	test   %eax,%eax
  10088c:	75 63                	jne    1008f1 <cprintf+0x181>
          s = "(null)";
        for(; *s; s++)
  10088e:	0f b6 02             	movzbl (%edx),%eax
  100891:	84 c0                	test   %al,%al
  100893:	74 18                	je     1008ad <cprintf+0x13d>
  100895:	89 d3                	mov    %edx,%ebx
          cons_putc(*s);
  100897:	0f be c0             	movsbl %al,%eax
  10089a:	89 04 24             	mov    %eax,(%esp)
  10089d:	e8 1e fb ff ff       	call   1003c0 <cons_putc>
        break;
      case 's':
        s = (char*)*argp++;
        if(s == 0)
          s = "(null)";
        for(; *s; s++)
  1008a2:	0f b6 43 01          	movzbl 0x1(%ebx),%eax
  1008a6:	83 c3 01             	add    $0x1,%ebx
  1008a9:	84 c0                	test   %al,%al
  1008ab:	75 ea                	jne    100897 <cprintf+0x127>
        cons_putc('%');
        break;
      default:
        // Print unknown % sequence to draw attention.
        cons_putc('%');
        cons_putc(c);
  1008ad:	31 d2                	xor    %edx,%edx
  1008af:	e9 17 ff ff ff       	jmp    1007cb <cprintf+0x5b>
      break;
    
    case '%':
      switch(c){
      case 'd':
        printint(*argp++, 10, 1);
  1008b4:	8b 55 f0             	mov    -0x10(%ebp),%edx
  1008b7:	8b 02                	mov    (%edx),%eax
  1008b9:	83 c2 04             	add    $0x4,%edx
  1008bc:	89 55 f0             	mov    %edx,-0x10(%ebp)
  1008bf:	c7 44 24 08 01 00 00 	movl   $0x1,0x8(%esp)
  1008c6:	00 
  1008c7:	c7 44 24 04 0a 00 00 	movl   $0xa,0x4(%esp)
  1008ce:	00 
  1008cf:	89 04 24             	mov    %eax,(%esp)
  1008d2:	e8 19 fe ff ff       	call   1006f0 <printint>
  1008d7:	31 d2                	xor    %edx,%edx
  1008d9:	e9 ed fe ff ff       	jmp    1007cb <cprintf+0x5b>
          s = "(null)";
        for(; *s; s++)
          cons_putc(*s);
        break;
      case '%':
        cons_putc('%');
  1008de:	c7 04 24 25 00 00 00 	movl   $0x25,(%esp)
  1008e5:	e8 d6 fa ff ff       	call   1003c0 <cons_putc>
  1008ea:	31 d2                	xor    %edx,%edx
  1008ec:	e9 da fe ff ff       	jmp    1007cb <cprintf+0x5b>
      case 'x':
      case 'p':
        printint(*argp++, 16, 0);
        break;
      case 's':
        s = (char*)*argp++;
  1008f1:	89 c2                	mov    %eax,%edx
  1008f3:	eb 99                	jmp    10088e <cprintf+0x11e>
  uint *argp;
  char *s;

  locking = use_console_lock;
  if(locking)
    acquire(&console_lock);
  1008f5:	c7 04 24 c0 77 10 00 	movl   $0x1077c0,(%esp)
  1008fc:	e8 df 3c 00 00       	call   1045e0 <acquire>
  100901:	e9 83 fe ff ff       	jmp    100789 <cprintf+0x19>
  100906:	8d 76 00             	lea    0x0(%esi),%esi
  100909:	8d bc 27 00 00 00 00 	lea    0x0(%edi),%edi

00100910 <panic>:
  ioapic_enable(IRQ_KBD, 0);
}

void
panic(char *s)
{
  100910:	55                   	push   %ebp
  100911:	89 e5                	mov    %esp,%ebp
  100913:	56                   	push   %esi
  100914:	53                   	push   %ebx
  100915:	83 ec 40             	sub    $0x40,%esp
  int i;
  uint pcs[10];
  
  __asm __volatile("cli");
  100918:	fa                   	cli    
  use_console_lock = 0;
  100919:	c7 05 a4 77 10 00 00 	movl   $0x0,0x1077a4
  100920:	00 00 00 
  cprintf("cpu%d: panic: ", cpu());
  cprintf(s);
  cprintf("\n");
  getcallerpcs(&s, pcs);
  100923:	8d 75 d0             	lea    -0x30(%ebp),%esi
  for(i=0; i<10; i++)
    cprintf(" %p", pcs[i]);
  100926:	bb 02 00 00 00       	mov    $0x2,%ebx
  int i;
  uint pcs[10];
  
  __asm __volatile("cli");
  use_console_lock = 0;
  cprintf("cpu%d: panic: ", cpu());
  10092b:	e8 50 1f 00 00       	call   102880 <cpu>
  100930:	c7 04 24 66 67 10 00 	movl   $0x106766,(%esp)
  100937:	89 44 24 04          	mov    %eax,0x4(%esp)
  10093b:	e8 30 fe ff ff       	call   100770 <cprintf>
  cprintf(s);
  100940:	8b 45 08             	mov    0x8(%ebp),%eax
  100943:	89 04 24             	mov    %eax,(%esp)
  100946:	e8 25 fe ff ff       	call   100770 <cprintf>
  cprintf("\n");
  10094b:	c7 04 24 b3 6b 10 00 	movl   $0x106bb3,(%esp)
  100952:	e8 19 fe ff ff       	call   100770 <cprintf>
  getcallerpcs(&s, pcs);
  100957:	8d 45 08             	lea    0x8(%ebp),%eax
  10095a:	89 04 24             	mov    %eax,(%esp)
  10095d:	89 74 24 04          	mov    %esi,0x4(%esp)
  100961:	e8 da 3a 00 00       	call   104440 <getcallerpcs>
  for(i=0; i<10; i++)
    cprintf(" %p", pcs[i]);
  100966:	8b 45 d0             	mov    -0x30(%ebp),%eax
  100969:	c7 04 24 75 67 10 00 	movl   $0x106775,(%esp)
  100970:	89 44 24 04          	mov    %eax,0x4(%esp)
  100974:	e8 f7 fd ff ff       	call   100770 <cprintf>
  100979:	8b 44 9e fc          	mov    -0x4(%esi,%ebx,4),%eax
  10097d:	83 c3 01             	add    $0x1,%ebx
  100980:	c7 04 24 75 67 10 00 	movl   $0x106775,(%esp)
  100987:	89 44 24 04          	mov    %eax,0x4(%esp)
  10098b:	e8 e0 fd ff ff       	call   100770 <cprintf>
  use_console_lock = 0;
  cprintf("cpu%d: panic: ", cpu());
  cprintf(s);
  cprintf("\n");
  getcallerpcs(&s, pcs);
  for(i=0; i<10; i++)
  100990:	83 fb 0b             	cmp    $0xb,%ebx
  100993:	75 e4                	jne    100979 <panic+0x69>
    cprintf(" %p", pcs[i]);
  panicked = 1; // freeze other CPU
  100995:	c7 05 a0 77 10 00 01 	movl   $0x1,0x1077a0
  10099c:	00 00 00 
  10099f:	eb fe                	jmp    10099f <panic+0x8f>
  1009a1:	90                   	nop    
  1009a2:	90                   	nop    
  1009a3:	90                   	nop    
  1009a4:	90                   	nop    
  1009a5:	90                   	nop    
  1009a6:	90                   	nop    
  1009a7:	90                   	nop    
  1009a8:	90                   	nop    
  1009a9:	90                   	nop    
  1009aa:	90                   	nop    
  1009ab:	90                   	nop    
  1009ac:	90                   	nop    
  1009ad:	90                   	nop    
  1009ae:	90                   	nop    
  1009af:	90                   	nop    

001009b0 <exec>:
#include "x86.h"
#include "elf.h"

int
exec(char *path, char **argv)
{
  1009b0:	55                   	push   %ebp
  1009b1:	89 e5                	mov    %esp,%ebp
  1009b3:	57                   	push   %edi
  1009b4:	56                   	push   %esi
  1009b5:	53                   	push   %ebx
  1009b6:	81 ec 9c 00 00 00    	sub    $0x9c,%esp
  uint sz, sp, argp;
  struct elfhdr elf;
  struct inode *ip;
  struct proghdr ph;

  if((ip = namei(path)) == 0)
  1009bc:	8b 45 08             	mov    0x8(%ebp),%eax
  1009bf:	89 04 24             	mov    %eax,(%esp)
  1009c2:	e8 49 16 00 00       	call   102010 <namei>
  1009c7:	89 c6                	mov    %eax,%esi
  1009c9:	b8 ff ff ff ff       	mov    $0xffffffff,%eax
  1009ce:	85 f6                	test   %esi,%esi
  1009d0:	74 42                	je     100a14 <exec+0x64>
    return -1;
  ilock(ip);
  1009d2:	89 34 24             	mov    %esi,(%esp)
  1009d5:	e8 a6 13 00 00       	call   101d80 <ilock>
  // Compute memory size of new process.
  mem = 0;
  sz = 0;

  // Program segments.
  if(readi(ip, (char*)&elf, 0, sizeof(elf)) < sizeof(elf))
  1009da:	8d 45 a0             	lea    -0x60(%ebp),%eax
  1009dd:	c7 44 24 0c 34 00 00 	movl   $0x34,0xc(%esp)
  1009e4:	00 
  1009e5:	c7 44 24 08 00 00 00 	movl   $0x0,0x8(%esp)
  1009ec:	00 
  1009ed:	89 44 24 04          	mov    %eax,0x4(%esp)
  1009f1:	89 34 24             	mov    %esi,(%esp)
  1009f4:	e8 47 0c 00 00       	call   101640 <readi>
  1009f9:	83 f8 33             	cmp    $0x33,%eax
  1009fc:	76 09                	jbe    100a07 <exec+0x57>
    goto bad;
  if(elf.magic != ELF_MAGIC)
  1009fe:	81 7d a0 7f 45 4c 46 	cmpl   $0x464c457f,-0x60(%ebp)
  100a05:	74 18                	je     100a1f <exec+0x6f>
  return 0;

 bad:
  if(mem)
    kfree(mem, sz);
  iunlockput(ip);
  100a07:	89 34 24             	mov    %esi,(%esp)
  100a0a:	e8 51 13 00 00       	call   101d60 <iunlockput>
  100a0f:	b8 ff ff ff ff       	mov    $0xffffffff,%eax
  return -1;
}
  100a14:	81 c4 9c 00 00 00    	add    $0x9c,%esp
  100a1a:	5b                   	pop    %ebx
  100a1b:	5e                   	pop    %esi
  100a1c:	5f                   	pop    %edi
  100a1d:	5d                   	pop    %ebp
  100a1e:	c3                   	ret    
  // Program segments.
  if(readi(ip, (char*)&elf, 0, sizeof(elf)) < sizeof(elf))
    goto bad;
  if(elf.magic != ELF_MAGIC)
    goto bad;
  for(i=0, off=elf.phoff; i<elf.phnum; i++, off+=sizeof(ph)){
  100a1f:	66 83 7d cc 00       	cmpw   $0x0,-0x34(%ebp)
  100a24:	8b 7d bc             	mov    -0x44(%ebp),%edi
  100a27:	c7 85 7c ff ff ff 00 	movl   $0x0,-0x84(%ebp)
  100a2e:	00 00 00 
  100a31:	74 4c                	je     100a7f <exec+0xcf>
  100a33:	31 db                	xor    %ebx,%ebx
  100a35:	eb 0b                	jmp    100a42 <exec+0x92>
  100a37:	0f b7 45 cc          	movzwl -0x34(%ebp),%eax
  100a3b:	83 c3 01             	add    $0x1,%ebx
  100a3e:	39 d8                	cmp    %ebx,%eax
  100a40:	7e 3d                	jle    100a7f <exec+0xcf>
    if(readi(ip, (char*)&ph, off, sizeof(ph)) != sizeof(ph))
  100a42:	89 d8                	mov    %ebx,%eax
  100a44:	c1 e0 05             	shl    $0x5,%eax
  100a47:	01 f8                	add    %edi,%eax
  100a49:	8d 55 d4             	lea    -0x2c(%ebp),%edx
  100a4c:	c7 44 24 0c 20 00 00 	movl   $0x20,0xc(%esp)
  100a53:	00 
  100a54:	89 44 24 08          	mov    %eax,0x8(%esp)
  100a58:	89 54 24 04          	mov    %edx,0x4(%esp)
  100a5c:	89 34 24             	mov    %esi,(%esp)
  100a5f:	e8 dc 0b 00 00       	call   101640 <readi>
  100a64:	83 f8 20             	cmp    $0x20,%eax
  100a67:	75 9e                	jne    100a07 <exec+0x57>
      goto bad;
    if(ph.type != ELF_PROG_LOAD)
  100a69:	83 7d d4 01          	cmpl   $0x1,-0x2c(%ebp)
  100a6d:	75 c8                	jne    100a37 <exec+0x87>
      continue;
    if(ph.memsz < ph.filesz)
  100a6f:	8b 45 e8             	mov    -0x18(%ebp),%eax
  100a72:	3b 45 e4             	cmp    -0x1c(%ebp),%eax
  100a75:	72 90                	jb     100a07 <exec+0x57>
      goto bad;
    sz += ph.memsz;
  100a77:	01 85 7c ff ff ff    	add    %eax,-0x84(%ebp)
  100a7d:	eb b8                	jmp    100a37 <exec+0x87>
  }
  
  // Arguments.
  arglen = 0;
  for(argc=0; argv[argc]; argc++)
  100a7f:	8b 4d 0c             	mov    0xc(%ebp),%ecx
  100a82:	31 db                	xor    %ebx,%ebx
  100a84:	c7 85 78 ff ff ff 00 	movl   $0x0,-0x88(%ebp)
  100a8b:	00 00 00 
  100a8e:	8b 11                	mov    (%ecx),%edx
  100a90:	85 d2                	test   %edx,%edx
  100a92:	0f 84 a1 02 00 00    	je     100d39 <exec+0x389>
    arglen += strlen(argv[argc]) + 1;
  100a98:	89 14 24             	mov    %edx,(%esp)
  100a9b:	e8 a0 3d 00 00       	call   104840 <strlen>
    sz += ph.memsz;
  }
  
  // Arguments.
  arglen = 0;
  for(argc=0; argv[argc]; argc++)
  100aa0:	8b 4d 0c             	mov    0xc(%ebp),%ecx
  100aa3:	83 85 78 ff ff ff 01 	addl   $0x1,-0x88(%ebp)
  100aaa:	8b bd 78 ff ff ff    	mov    -0x88(%ebp),%edi
  100ab0:	8b 14 b9             	mov    (%ecx,%edi,4),%edx
    arglen += strlen(argv[argc]) + 1;
  100ab3:	01 d8                	add    %ebx,%eax
  100ab5:	8d 58 01             	lea    0x1(%eax),%ebx
    sz += ph.memsz;
  }
  
  // Arguments.
  arglen = 0;
  for(argc=0; argv[argc]; argc++)
  100ab8:	89 bd 70 ff ff ff    	mov    %edi,-0x90(%ebp)
  100abe:	85 d2                	test   %edx,%edx
  100ac0:	75 d6                	jne    100a98 <exec+0xe8>
  100ac2:	83 c0 04             	add    $0x4,%eax
  100ac5:	83 e0 fc             	and    $0xfffffffc,%eax
  100ac8:	8d 3c bd 04 00 00 00 	lea    0x4(,%edi,4),%edi
  100acf:	89 45 84             	mov    %eax,-0x7c(%ebp)
  100ad2:	89 f8                	mov    %edi,%eax
  100ad4:	03 45 84             	add    -0x7c(%ebp),%eax
  100ad7:	89 7d 8c             	mov    %edi,-0x74(%ebp)

  // Stack.
  sz += PAGE;
  
  // Allocate program memory.
  sz = (sz+PAGE-1) & ~(PAGE-1);
  100ada:	8b 95 7c ff ff ff    	mov    -0x84(%ebp),%edx
  100ae0:	8d 84 10 ff 1f 00 00 	lea    0x1fff(%eax,%edx,1),%eax
  100ae7:	25 00 f0 ff ff       	and    $0xfffff000,%eax
  100aec:	89 45 90             	mov    %eax,-0x70(%ebp)
  mem = kalloc(sz);
  100aef:	89 04 24             	mov    %eax,(%esp)
  100af2:	e8 f9 18 00 00       	call   1023f0 <kalloc>
  if(mem == 0)
  100af7:	85 c0                	test   %eax,%eax
  // Stack.
  sz += PAGE;
  
  // Allocate program memory.
  sz = (sz+PAGE-1) & ~(PAGE-1);
  mem = kalloc(sz);
  100af9:	89 85 74 ff ff ff    	mov    %eax,-0x8c(%ebp)
  if(mem == 0)
  100aff:	0f 84 02 ff ff ff    	je     100a07 <exec+0x57>
    goto bad;
  memset(mem, 0, sz);
  100b05:	8b 4d 90             	mov    -0x70(%ebp),%ecx
  100b08:	c7 44 24 04 00 00 00 	movl   $0x0,0x4(%esp)
  100b0f:	00 
  100b10:	89 04 24             	mov    %eax,(%esp)
  100b13:	89 4c 24 08          	mov    %ecx,0x8(%esp)
  100b17:	e8 24 3b 00 00       	call   104640 <memset>

  // Load program into memory.
  for(i=0, off=elf.phoff; i<elf.phnum; i++, off+=sizeof(ph)){
  100b1c:	8b 45 bc             	mov    -0x44(%ebp),%eax
  100b1f:	66 83 7d cc 00       	cmpw   $0x0,-0x34(%ebp)
  100b24:	0f 84 b7 00 00 00    	je     100be1 <exec+0x231>
  100b2a:	89 c3                	mov    %eax,%ebx
  100b2c:	31 ff                	xor    %edi,%edi
  100b2e:	eb 12                	jmp    100b42 <exec+0x192>
  100b30:	0f b7 45 cc          	movzwl -0x34(%ebp),%eax
  100b34:	83 c7 01             	add    $0x1,%edi
  100b37:	39 f8                	cmp    %edi,%eax
  100b39:	0f 8e a2 00 00 00    	jle    100be1 <exec+0x231>
  100b3f:	83 c3 20             	add    $0x20,%ebx
    if(readi(ip, (char*)&ph, off, sizeof(ph)) != sizeof(ph))
  100b42:	8d 45 d4             	lea    -0x2c(%ebp),%eax
  100b45:	c7 44 24 0c 20 00 00 	movl   $0x20,0xc(%esp)
  100b4c:	00 
  100b4d:	89 5c 24 08          	mov    %ebx,0x8(%esp)
  100b51:	89 44 24 04          	mov    %eax,0x4(%esp)
  100b55:	89 34 24             	mov    %esi,(%esp)
  100b58:	e8 e3 0a 00 00       	call   101640 <readi>
  100b5d:	83 f8 20             	cmp    $0x20,%eax
  100b60:	75 65                	jne    100bc7 <exec+0x217>
      goto bad;
    if(ph.type != ELF_PROG_LOAD)
  100b62:	83 7d d4 01          	cmpl   $0x1,-0x2c(%ebp)
  100b66:	75 c8                	jne    100b30 <exec+0x180>
      continue;
    if(ph.va + ph.memsz > sz)
  100b68:	8b 55 dc             	mov    -0x24(%ebp),%edx
  100b6b:	89 d0                	mov    %edx,%eax
  100b6d:	03 45 e8             	add    -0x18(%ebp),%eax
  100b70:	39 45 90             	cmp    %eax,-0x70(%ebp)
  100b73:	72 52                	jb     100bc7 <exec+0x217>
      goto bad;
    if(readi(ip, mem + ph.va, ph.offset, ph.filesz) != ph.filesz)
  100b75:	8b 45 e4             	mov    -0x1c(%ebp),%eax
  100b78:	89 34 24             	mov    %esi,(%esp)
  100b7b:	89 44 24 0c          	mov    %eax,0xc(%esp)
  100b7f:	8b 45 d8             	mov    -0x28(%ebp),%eax
  100b82:	89 44 24 08          	mov    %eax,0x8(%esp)
  100b86:	8b 85 74 ff ff ff    	mov    -0x8c(%ebp),%eax
  100b8c:	01 d0                	add    %edx,%eax
  100b8e:	89 44 24 04          	mov    %eax,0x4(%esp)
  100b92:	e8 a9 0a 00 00       	call   101640 <readi>
  100b97:	3b 45 e4             	cmp    -0x1c(%ebp),%eax
  100b9a:	89 c2                	mov    %eax,%edx
  100b9c:	75 29                	jne    100bc7 <exec+0x217>
      goto bad;
    memset(mem + ph.va + ph.filesz, 0, ph.memsz - ph.filesz);
  100b9e:	8b 45 e8             	mov    -0x18(%ebp),%eax
  100ba1:	c7 44 24 04 00 00 00 	movl   $0x0,0x4(%esp)
  100ba8:	00 
  100ba9:	29 d0                	sub    %edx,%eax
  100bab:	89 44 24 08          	mov    %eax,0x8(%esp)
  100baf:	8b 85 74 ff ff ff    	mov    -0x8c(%ebp),%eax
  100bb5:	03 45 dc             	add    -0x24(%ebp),%eax
  100bb8:	01 d0                	add    %edx,%eax
  100bba:	89 04 24             	mov    %eax,(%esp)
  100bbd:	e8 7e 3a 00 00       	call   104640 <memset>
  100bc2:	e9 69 ff ff ff       	jmp    100b30 <exec+0x180>
  setupsegs(cp);
  return 0;

 bad:
  if(mem)
    kfree(mem, sz);
  100bc7:	8b 7d 90             	mov    -0x70(%ebp),%edi
  100bca:	8b 85 74 ff ff ff    	mov    -0x8c(%ebp),%eax
  100bd0:	89 7c 24 04          	mov    %edi,0x4(%esp)
  100bd4:	89 04 24             	mov    %eax,(%esp)
  100bd7:	e8 d4 18 00 00       	call   1024b0 <kfree>
  100bdc:	e9 26 fe ff ff       	jmp    100a07 <exec+0x57>
      goto bad;
    if(readi(ip, mem + ph.va, ph.offset, ph.filesz) != ph.filesz)
      goto bad;
    memset(mem + ph.va + ph.filesz, 0, ph.memsz - ph.filesz);
  }
  iunlockput(ip);
  100be1:	89 34 24             	mov    %esi,(%esp)
  100be4:	e8 77 11 00 00       	call   101d60 <iunlockput>
  
  // Initialize stack.
  sp = sz;
  argp = sz - arglen - 4*(argc+1);
  100be9:	8b 55 90             	mov    -0x70(%ebp),%edx
  100bec:	8b 4d 8c             	mov    -0x74(%ebp),%ecx
  100bef:	2b 55 84             	sub    -0x7c(%ebp),%edx

  // Copy argv strings and pointers to stack.
  *(uint*)(mem+argp + 4*argc) = 0;  // argv[argc]
  100bf2:	8b 85 78 ff ff ff    	mov    -0x88(%ebp),%eax
  for(i=argc-1; i>=0; i--){
  100bf8:	8b bd 78 ff ff ff    	mov    -0x88(%ebp),%edi
  }
  iunlockput(ip);
  
  // Initialize stack.
  sp = sz;
  argp = sz - arglen - 4*(argc+1);
  100bfe:	29 ca                	sub    %ecx,%edx
  100c00:	89 55 80             	mov    %edx,-0x80(%ebp)

  // Copy argv strings and pointers to stack.
  *(uint*)(mem+argp + 4*argc) = 0;  // argv[argc]
  100c03:	8b 95 74 ff ff ff    	mov    -0x8c(%ebp),%edx
  100c09:	03 55 80             	add    -0x80(%ebp),%edx
  100c0c:	c1 e0 02             	shl    $0x2,%eax
  for(i=argc-1; i>=0; i--){
  100c0f:	83 ef 01             	sub    $0x1,%edi
  // Initialize stack.
  sp = sz;
  argp = sz - arglen - 4*(argc+1);

  // Copy argv strings and pointers to stack.
  *(uint*)(mem+argp + 4*argc) = 0;  // argv[argc]
  100c12:	c7 04 02 00 00 00 00 	movl   $0x0,(%edx,%eax,1)
  for(i=argc-1; i>=0; i--){
  100c19:	78 53                	js     100c6e <exec+0x2be>
  100c1b:	8b 4d 0c             	mov    0xc(%ebp),%ecx
  100c1e:	01 c2                	add    %eax,%edx
  100c20:	8b bd 78 ff ff ff    	mov    -0x88(%ebp),%edi
  100c26:	8b 5d 90             	mov    -0x70(%ebp),%ebx
  100c29:	89 55 88             	mov    %edx,-0x78(%ebp)
  100c2c:	8d 34 08             	lea    (%eax,%ecx,1),%esi
    len = strlen(argv[i]) + 1;
  100c2f:	8b 46 fc             	mov    -0x4(%esi),%eax
  100c32:	89 04 24             	mov    %eax,(%esp)
  100c35:	e8 06 3c 00 00       	call   104840 <strlen>
    sp -= len;
  100c3a:	83 c0 01             	add    $0x1,%eax
  100c3d:	29 c3                	sub    %eax,%ebx
    memmove(mem+sp, argv[i], len);
  100c3f:	89 44 24 08          	mov    %eax,0x8(%esp)
  100c43:	8b 46 fc             	mov    -0x4(%esi),%eax
    *(uint*)(mem+argp + 4*i) = sp;  // argv[i]
  100c46:	83 ee 04             	sub    $0x4,%esi
  // Copy argv strings and pointers to stack.
  *(uint*)(mem+argp + 4*argc) = 0;  // argv[argc]
  for(i=argc-1; i>=0; i--){
    len = strlen(argv[i]) + 1;
    sp -= len;
    memmove(mem+sp, argv[i], len);
  100c49:	89 44 24 04          	mov    %eax,0x4(%esp)
  100c4d:	8b 85 74 ff ff ff    	mov    -0x8c(%ebp),%eax
  100c53:	01 d8                	add    %ebx,%eax
  100c55:	89 04 24             	mov    %eax,(%esp)
  100c58:	e8 93 3a 00 00       	call   1046f0 <memmove>
    *(uint*)(mem+argp + 4*i) = sp;  // argv[i]
  100c5d:	8b 45 88             	mov    -0x78(%ebp),%eax
  100c60:	89 58 fc             	mov    %ebx,-0x4(%eax)
  100c63:	83 e8 04             	sub    $0x4,%eax
  sp = sz;
  argp = sz - arglen - 4*(argc+1);

  // Copy argv strings and pointers to stack.
  *(uint*)(mem+argp + 4*argc) = 0;  // argv[argc]
  for(i=argc-1; i>=0; i--){
  100c66:	83 ef 01             	sub    $0x1,%edi
    len = strlen(argv[i]) + 1;
    sp -= len;
    memmove(mem+sp, argv[i], len);
    *(uint*)(mem+argp + 4*i) = sp;  // argv[i]
  100c69:	89 45 88             	mov    %eax,-0x78(%ebp)
  sp = sz;
  argp = sz - arglen - 4*(argc+1);

  // Copy argv strings and pointers to stack.
  *(uint*)(mem+argp + 4*argc) = 0;  // argv[argc]
  for(i=argc-1; i>=0; i--){
  100c6c:	75 c1                	jne    100c2f <exec+0x27f>
  }

  // Stack frame for main(argc, argv), below arguments.
  sp = argp;
  sp -= 4;
  *(uint*)(mem+sp) = argp;
  100c6e:	8b 55 80             	mov    -0x80(%ebp),%edx
  100c71:	8b 8d 74 ff ff ff    	mov    -0x8c(%ebp),%ecx
  *(uint*)(mem+sp) = argc;
  sp -= 4;
  *(uint*)(mem+sp) = 0xffffffff;   // fake return pc

  // Save program name for debugging.
  for(last=s=path; *s; s++)
  100c77:	8b 45 08             	mov    0x8(%ebp),%eax
  // Stack frame for main(argc, argv), below arguments.
  sp = argp;
  sp -= 4;
  *(uint*)(mem+sp) = argp;
  sp -= 4;
  *(uint*)(mem+sp) = argc;
  100c7a:	8b bd 70 ff ff ff    	mov    -0x90(%ebp),%edi
  sp -= 4;
  100c80:	89 d6                	mov    %edx,%esi
  100c82:	83 ee 0c             	sub    $0xc,%esi
  }

  // Stack frame for main(argc, argv), below arguments.
  sp = argp;
  sp -= 4;
  *(uint*)(mem+sp) = argp;
  100c85:	89 54 0a fc          	mov    %edx,-0x4(%edx,%ecx,1)
  *(uint*)(mem+sp) = argc;
  sp -= 4;
  *(uint*)(mem+sp) = 0xffffffff;   // fake return pc

  // Save program name for debugging.
  for(last=s=path; *s; s++)
  100c89:	89 c3                	mov    %eax,%ebx
  // Stack frame for main(argc, argv), below arguments.
  sp = argp;
  sp -= 4;
  *(uint*)(mem+sp) = argp;
  sp -= 4;
  *(uint*)(mem+sp) = argc;
  100c8b:	89 7c 0a f8          	mov    %edi,-0x8(%edx,%ecx,1)
  sp -= 4;
  *(uint*)(mem+sp) = 0xffffffff;   // fake return pc
  100c8f:	c7 04 31 ff ff ff ff 	movl   $0xffffffff,(%ecx,%esi,1)

  // Save program name for debugging.
  for(last=s=path; *s; s++)
  100c96:	0f b6 10             	movzbl (%eax),%edx
  100c99:	84 d2                	test   %dl,%dl
  100c9b:	74 18                	je     100cb5 <exec+0x305>
  100c9d:	83 c0 01             	add    $0x1,%eax
  100ca0:	eb 0a                	jmp    100cac <exec+0x2fc>
  100ca2:	0f b6 10             	movzbl (%eax),%edx
  100ca5:	83 c0 01             	add    $0x1,%eax
  100ca8:	84 d2                	test   %dl,%dl
  100caa:	74 09                	je     100cb5 <exec+0x305>
    if(*s == '/')
  100cac:	80 fa 2f             	cmp    $0x2f,%dl
  100caf:	75 f1                	jne    100ca2 <exec+0x2f2>
  100cb1:	89 c3                	mov    %eax,%ebx
  100cb3:	eb ed                	jmp    100ca2 <exec+0x2f2>
      last = s+1;
  safestrcpy(cp->name, last, sizeof(cp->name));
  100cb5:	e8 86 28 00 00       	call   103540 <curproc>
  100cba:	89 5c 24 04          	mov    %ebx,0x4(%esp)
  100cbe:	c7 44 24 08 10 00 00 	movl   $0x10,0x8(%esp)
  100cc5:	00 
  100cc6:	05 88 00 00 00       	add    $0x88,%eax
  100ccb:	89 04 24             	mov    %eax,(%esp)
  100cce:	e8 2d 3b 00 00       	call   104800 <safestrcpy>

  // Commit to the new image.
  kfree(cp->mem, cp->sz);
  100cd3:	e8 68 28 00 00       	call   103540 <curproc>
  100cd8:	8b 58 04             	mov    0x4(%eax),%ebx
  100cdb:	e8 60 28 00 00       	call   103540 <curproc>
  100ce0:	89 5c 24 04          	mov    %ebx,0x4(%esp)
  100ce4:	8b 00                	mov    (%eax),%eax
  100ce6:	89 04 24             	mov    %eax,(%esp)
  100ce9:	e8 c2 17 00 00       	call   1024b0 <kfree>
  cp->mem = mem;
  100cee:	e8 4d 28 00 00       	call   103540 <curproc>
  100cf3:	8b 95 74 ff ff ff    	mov    -0x8c(%ebp),%edx
  100cf9:	89 10                	mov    %edx,(%eax)
  cp->sz = sz;
  100cfb:	e8 40 28 00 00       	call   103540 <curproc>
  100d00:	8b 4d 90             	mov    -0x70(%ebp),%ecx
  100d03:	89 48 04             	mov    %ecx,0x4(%eax)
  cp->tf->eip = elf.entry;  // main
  100d06:	e8 35 28 00 00       	call   103540 <curproc>
  100d0b:	8b 90 84 00 00 00    	mov    0x84(%eax),%edx
  100d11:	8b 45 b8             	mov    -0x48(%ebp),%eax
  100d14:	89 42 30             	mov    %eax,0x30(%edx)
  cp->tf->esp = sp;
  100d17:	e8 24 28 00 00       	call   103540 <curproc>
  100d1c:	8b 80 84 00 00 00    	mov    0x84(%eax),%eax
  100d22:	89 70 3c             	mov    %esi,0x3c(%eax)
  setupsegs(cp);
  100d25:	e8 16 28 00 00       	call   103540 <curproc>
  100d2a:	89 04 24             	mov    %eax,(%esp)
  100d2d:	e8 6e 28 00 00       	call   1035a0 <setupsegs>
  100d32:	31 c0                	xor    %eax,%eax
  100d34:	e9 db fc ff ff       	jmp    100a14 <exec+0x64>
    sz += ph.memsz;
  }
  
  // Arguments.
  arglen = 0;
  for(argc=0; argv[argc]; argc++)
  100d39:	b8 04 00 00 00       	mov    $0x4,%eax
  100d3e:	c7 85 70 ff ff ff 00 	movl   $0x0,-0x90(%ebp)
  100d45:	00 00 00 
  100d48:	c7 45 84 00 00 00 00 	movl   $0x0,-0x7c(%ebp)
  100d4f:	c7 45 8c 04 00 00 00 	movl   $0x4,-0x74(%ebp)
  100d56:	e9 7f fd ff ff       	jmp    100ada <exec+0x12a>
  100d5b:	90                   	nop    
  100d5c:	90                   	nop    
  100d5d:	90                   	nop    
  100d5e:	90                   	nop    
  100d5f:	90                   	nop    

00100d60 <checkf>:
  panic("filewrite");
}

int
checkf(struct file *f, int off)
{
  100d60:	55                   	push   %ebp
  100d61:	89 e5                	mov    %esp,%ebp
  100d63:	83 ec 18             	sub    $0x18,%esp
  100d66:	89 5d f8             	mov    %ebx,-0x8(%ebp)
  100d69:	8b 5d 08             	mov    0x8(%ebp),%ebx
  100d6c:	89 75 fc             	mov    %esi,-0x4(%ebp)
  int ret;
  if(f->type != FD_INODE)
  100d6f:	be ff ff ff ff       	mov    $0xffffffff,%esi
  100d74:	83 3b 03             	cmpl   $0x3,(%ebx)
  100d77:	74 0c                	je     100d85 <checkf+0x25>
    return -1;
  ilock(f->ip);
  ret = checki(f->ip, off);
  iunlock(f->ip);
  return ret;
}
  100d79:	89 f0                	mov    %esi,%eax
  100d7b:	8b 5d f8             	mov    -0x8(%ebp),%ebx
  100d7e:	8b 75 fc             	mov    -0x4(%ebp),%esi
  100d81:	89 ec                	mov    %ebp,%esp
  100d83:	5d                   	pop    %ebp
  100d84:	c3                   	ret    
checkf(struct file *f, int off)
{
  int ret;
  if(f->type != FD_INODE)
    return -1;
  ilock(f->ip);
  100d85:	8b 43 10             	mov    0x10(%ebx),%eax
  100d88:	89 04 24             	mov    %eax,(%esp)
  100d8b:	e8 f0 0f 00 00       	call   101d80 <ilock>
  ret = checki(f->ip, off);
  100d90:	8b 45 0c             	mov    0xc(%ebp),%eax
  100d93:	89 44 24 04          	mov    %eax,0x4(%esp)
  100d97:	8b 43 10             	mov    0x10(%ebx),%eax
  100d9a:	89 04 24             	mov    %eax,(%esp)
  100d9d:	e8 1e 07 00 00       	call   1014c0 <checki>
  100da2:	89 c6                	mov    %eax,%esi
  iunlock(f->ip);
  100da4:	8b 43 10             	mov    0x10(%ebx),%eax
  100da7:	89 04 24             	mov    %eax,(%esp)
  100daa:	e8 61 0f 00 00       	call   101d10 <iunlock>
  return ret;
}
  100daf:	89 f0                	mov    %esi,%eax
  100db1:	8b 5d f8             	mov    -0x8(%ebp),%ebx
  100db4:	8b 75 fc             	mov    -0x4(%ebp),%esi
  100db7:	89 ec                	mov    %ebp,%esp
  100db9:	5d                   	pop    %ebp
  100dba:	c3                   	ret    
  100dbb:	90                   	nop    
  100dbc:	8d 74 26 00          	lea    0x0(%esi),%esi

00100dc0 <filewrite>:
}

// Write to file f.  Addr is kernel address.
int
filewrite(struct file *f, char *addr, int n)
{
  100dc0:	55                   	push   %ebp
  100dc1:	89 e5                	mov    %esp,%ebp
  100dc3:	83 ec 28             	sub    $0x28,%esp
  100dc6:	89 5d f4             	mov    %ebx,-0xc(%ebp)
  100dc9:	8b 5d 08             	mov    0x8(%ebp),%ebx
  100dcc:	89 75 f8             	mov    %esi,-0x8(%ebp)
  100dcf:	8b 75 10             	mov    0x10(%ebp),%esi
  100dd2:	89 7d fc             	mov    %edi,-0x4(%ebp)
  100dd5:	8b 7d 0c             	mov    0xc(%ebp),%edi
  int r;

  if(f->writable == 0)
  100dd8:	80 7b 09 00          	cmpb   $0x0,0x9(%ebx)
  100ddc:	74 54                	je     100e32 <filewrite+0x72>
    return -1;
  if(f->type == FD_PIPE)
  100dde:	8b 03                	mov    (%ebx),%eax
  100de0:	83 f8 02             	cmp    $0x2,%eax
  100de3:	74 54                	je     100e39 <filewrite+0x79>
    return pipewrite(f->pipe, addr, n);
  if(f->type == FD_INODE){
  100de5:	83 f8 03             	cmp    $0x3,%eax
  100de8:	75 66                	jne    100e50 <filewrite+0x90>
    ilock(f->ip);
  100dea:	8b 43 10             	mov    0x10(%ebx),%eax
  100ded:	89 04 24             	mov    %eax,(%esp)
  100df0:	e8 8b 0f 00 00       	call   101d80 <ilock>
    if((r = writei(f->ip, addr, f->off, n)) > 0)
  100df5:	89 74 24 0c          	mov    %esi,0xc(%esp)
  100df9:	8b 43 14             	mov    0x14(%ebx),%eax
  100dfc:	89 7c 24 04          	mov    %edi,0x4(%esp)
  100e00:	89 44 24 08          	mov    %eax,0x8(%esp)
  100e04:	8b 43 10             	mov    0x10(%ebx),%eax
  100e07:	89 04 24             	mov    %eax,(%esp)
  100e0a:	e8 01 07 00 00       	call   101510 <writei>
  100e0f:	85 c0                	test   %eax,%eax
  100e11:	89 c6                	mov    %eax,%esi
  100e13:	7e 03                	jle    100e18 <filewrite+0x58>
      f->off += r;
  100e15:	01 43 14             	add    %eax,0x14(%ebx)
    iunlock(f->ip);
  100e18:	8b 43 10             	mov    0x10(%ebx),%eax
  100e1b:	89 04 24             	mov    %eax,(%esp)
  100e1e:	e8 ed 0e 00 00       	call   101d10 <iunlock>
    return r;
  }
  panic("filewrite");
}
  100e23:	89 f0                	mov    %esi,%eax
  100e25:	8b 5d f4             	mov    -0xc(%ebp),%ebx
  100e28:	8b 75 f8             	mov    -0x8(%ebp),%esi
  100e2b:	8b 7d fc             	mov    -0x4(%ebp),%edi
  100e2e:	89 ec                	mov    %ebp,%esp
  100e30:	5d                   	pop    %ebp
  100e31:	c3                   	ret    
    if((r = writei(f->ip, addr, f->off, n)) > 0)
      f->off += r;
    iunlock(f->ip);
    return r;
  }
  panic("filewrite");
  100e32:	be ff ff ff ff       	mov    $0xffffffff,%esi
  100e37:	eb ea                	jmp    100e23 <filewrite+0x63>
  int r;

  if(f->writable == 0)
    return -1;
  if(f->type == FD_PIPE)
    return pipewrite(f->pipe, addr, n);
  100e39:	8b 43 0c             	mov    0xc(%ebx),%eax
      f->off += r;
    iunlock(f->ip);
    return r;
  }
  panic("filewrite");
}
  100e3c:	8b 75 f8             	mov    -0x8(%ebp),%esi
  100e3f:	8b 5d f4             	mov    -0xc(%ebp),%ebx
  100e42:	8b 7d fc             	mov    -0x4(%ebp),%edi
  int r;

  if(f->writable == 0)
    return -1;
  if(f->type == FD_PIPE)
    return pipewrite(f->pipe, addr, n);
  100e45:	89 45 08             	mov    %eax,0x8(%ebp)
      f->off += r;
    iunlock(f->ip);
    return r;
  }
  panic("filewrite");
}
  100e48:	89 ec                	mov    %ebp,%esp
  100e4a:	5d                   	pop    %ebp
  int r;

  if(f->writable == 0)
    return -1;
  if(f->type == FD_PIPE)
    return pipewrite(f->pipe, addr, n);
  100e4b:	e9 70 21 00 00       	jmp    102fc0 <pipewrite>
    if((r = writei(f->ip, addr, f->off, n)) > 0)
      f->off += r;
    iunlock(f->ip);
    return r;
  }
  panic("filewrite");
  100e50:	c7 04 24 8a 67 10 00 	movl   $0x10678a,(%esp)
  100e57:	e8 b4 fa ff ff       	call   100910 <panic>
  100e5c:	8d 74 26 00          	lea    0x0(%esi),%esi

00100e60 <fileread>:
}

// Read from file f.  Addr is kernel address.
int
fileread(struct file *f, char *addr, int n)
{
  100e60:	55                   	push   %ebp
  100e61:	89 e5                	mov    %esp,%ebp
  100e63:	83 ec 28             	sub    $0x28,%esp
  100e66:	89 5d f4             	mov    %ebx,-0xc(%ebp)
  100e69:	8b 5d 08             	mov    0x8(%ebp),%ebx
  100e6c:	89 75 f8             	mov    %esi,-0x8(%ebp)
  100e6f:	8b 75 10             	mov    0x10(%ebp),%esi
  100e72:	89 7d fc             	mov    %edi,-0x4(%ebp)
  100e75:	8b 7d 0c             	mov    0xc(%ebp),%edi
  int r;

  if(f->readable == 0)
  100e78:	80 7b 08 00          	cmpb   $0x0,0x8(%ebx)
  100e7c:	74 54                	je     100ed2 <fileread+0x72>
    return -1;
  if(f->type == FD_PIPE)
  100e7e:	8b 03                	mov    (%ebx),%eax
  100e80:	83 f8 02             	cmp    $0x2,%eax
  100e83:	74 54                	je     100ed9 <fileread+0x79>
    return piperead(f->pipe, addr, n);
  if(f->type == FD_INODE){
  100e85:	83 f8 03             	cmp    $0x3,%eax
  100e88:	75 66                	jne    100ef0 <fileread+0x90>
    ilock(f->ip);
  100e8a:	8b 43 10             	mov    0x10(%ebx),%eax
  100e8d:	89 04 24             	mov    %eax,(%esp)
  100e90:	e8 eb 0e 00 00       	call   101d80 <ilock>
    if((r = readi(f->ip, addr, f->off, n)) > 0)
  100e95:	89 74 24 0c          	mov    %esi,0xc(%esp)
  100e99:	8b 43 14             	mov    0x14(%ebx),%eax
  100e9c:	89 7c 24 04          	mov    %edi,0x4(%esp)
  100ea0:	89 44 24 08          	mov    %eax,0x8(%esp)
  100ea4:	8b 43 10             	mov    0x10(%ebx),%eax
  100ea7:	89 04 24             	mov    %eax,(%esp)
  100eaa:	e8 91 07 00 00       	call   101640 <readi>
  100eaf:	85 c0                	test   %eax,%eax
  100eb1:	89 c6                	mov    %eax,%esi
  100eb3:	7e 03                	jle    100eb8 <fileread+0x58>
      f->off += r;
  100eb5:	01 43 14             	add    %eax,0x14(%ebx)
    iunlock(f->ip);
  100eb8:	8b 43 10             	mov    0x10(%ebx),%eax
  100ebb:	89 04 24             	mov    %eax,(%esp)
  100ebe:	e8 4d 0e 00 00       	call   101d10 <iunlock>
    return r;
  }
  panic("fileread");
}
  100ec3:	89 f0                	mov    %esi,%eax
  100ec5:	8b 5d f4             	mov    -0xc(%ebp),%ebx
  100ec8:	8b 75 f8             	mov    -0x8(%ebp),%esi
  100ecb:	8b 7d fc             	mov    -0x4(%ebp),%edi
  100ece:	89 ec                	mov    %ebp,%esp
  100ed0:	5d                   	pop    %ebp
  100ed1:	c3                   	ret    
    if((r = readi(f->ip, addr, f->off, n)) > 0)
      f->off += r;
    iunlock(f->ip);
    return r;
  }
  panic("fileread");
  100ed2:	be ff ff ff ff       	mov    $0xffffffff,%esi
  100ed7:	eb ea                	jmp    100ec3 <fileread+0x63>
  int r;

  if(f->readable == 0)
    return -1;
  if(f->type == FD_PIPE)
    return piperead(f->pipe, addr, n);
  100ed9:	8b 43 0c             	mov    0xc(%ebx),%eax
      f->off += r;
    iunlock(f->ip);
    return r;
  }
  panic("fileread");
}
  100edc:	8b 75 f8             	mov    -0x8(%ebp),%esi
  100edf:	8b 5d f4             	mov    -0xc(%ebp),%ebx
  100ee2:	8b 7d fc             	mov    -0x4(%ebp),%edi
  int r;

  if(f->readable == 0)
    return -1;
  if(f->type == FD_PIPE)
    return piperead(f->pipe, addr, n);
  100ee5:	89 45 08             	mov    %eax,0x8(%ebp)
      f->off += r;
    iunlock(f->ip);
    return r;
  }
  panic("fileread");
}
  100ee8:	89 ec                	mov    %ebp,%esp
  100eea:	5d                   	pop    %ebp
  int r;

  if(f->readable == 0)
    return -1;
  if(f->type == FD_PIPE)
    return piperead(f->pipe, addr, n);
  100eeb:	e9 00 20 00 00       	jmp    102ef0 <piperead>
    if((r = readi(f->ip, addr, f->off, n)) > 0)
      f->off += r;
    iunlock(f->ip);
    return r;
  }
  panic("fileread");
  100ef0:	c7 04 24 94 67 10 00 	movl   $0x106794,(%esp)
  100ef7:	e8 14 fa ff ff       	call   100910 <panic>
  100efc:	8d 74 26 00          	lea    0x0(%esi),%esi

00100f00 <filestat>:
}

// Get metadata about file f.
int
filestat(struct file *f, struct stat *st)
{
  100f00:	55                   	push   %ebp
  if(f->type == FD_INODE){
  100f01:	b8 ff ff ff ff       	mov    $0xffffffff,%eax
}

// Get metadata about file f.
int
filestat(struct file *f, struct stat *st)
{
  100f06:	89 e5                	mov    %esp,%ebp
  100f08:	53                   	push   %ebx
  100f09:	83 ec 14             	sub    $0x14,%esp
  100f0c:	8b 5d 08             	mov    0x8(%ebp),%ebx
  if(f->type == FD_INODE){
  100f0f:	83 3b 03             	cmpl   $0x3,(%ebx)
  100f12:	74 0c                	je     100f20 <filestat+0x20>
    stati(f->ip, st);
    iunlock(f->ip);
    return 0;
  }
  return -1;
}
  100f14:	83 c4 14             	add    $0x14,%esp
  100f17:	5b                   	pop    %ebx
  100f18:	5d                   	pop    %ebp
  100f19:	c3                   	ret    
  100f1a:	8d b6 00 00 00 00    	lea    0x0(%esi),%esi
// Get metadata about file f.
int
filestat(struct file *f, struct stat *st)
{
  if(f->type == FD_INODE){
    ilock(f->ip);
  100f20:	8b 43 10             	mov    0x10(%ebx),%eax
  100f23:	89 04 24             	mov    %eax,(%esp)
  100f26:	e8 55 0e 00 00       	call   101d80 <ilock>
    stati(f->ip, st);
  100f2b:	8b 45 0c             	mov    0xc(%ebp),%eax
  100f2e:	89 44 24 04          	mov    %eax,0x4(%esp)
  100f32:	8b 43 10             	mov    0x10(%ebx),%eax
  100f35:	89 04 24             	mov    %eax,(%esp)
  100f38:	e8 e3 01 00 00       	call   101120 <stati>
    iunlock(f->ip);
  100f3d:	8b 43 10             	mov    0x10(%ebx),%eax
  100f40:	89 04 24             	mov    %eax,(%esp)
  100f43:	e8 c8 0d 00 00       	call   101d10 <iunlock>
    return 0;
  }
  return -1;
}
  100f48:	83 c4 14             	add    $0x14,%esp
filestat(struct file *f, struct stat *st)
{
  if(f->type == FD_INODE){
    ilock(f->ip);
    stati(f->ip, st);
    iunlock(f->ip);
  100f4b:	31 c0                	xor    %eax,%eax
    return 0;
  }
  return -1;
}
  100f4d:	5b                   	pop    %ebx
  100f4e:	5d                   	pop    %ebp
  100f4f:	c3                   	ret    

00100f50 <filedup>:
}

// Increment ref count for file f.
struct file*
filedup(struct file *f)
{
  100f50:	55                   	push   %ebp
  100f51:	89 e5                	mov    %esp,%ebp
  100f53:	53                   	push   %ebx
  100f54:	83 ec 04             	sub    $0x4,%esp
  100f57:	8b 5d 08             	mov    0x8(%ebp),%ebx
  acquire(&file_table_lock);
  100f5a:	c7 04 24 e0 99 10 00 	movl   $0x1099e0,(%esp)
  100f61:	e8 7a 36 00 00       	call   1045e0 <acquire>
  if(f->ref < 1 || f->type == FD_CLOSED)
  100f66:	8b 43 04             	mov    0x4(%ebx),%eax
  100f69:	85 c0                	test   %eax,%eax
  100f6b:	7e 06                	jle    100f73 <filedup+0x23>
  100f6d:	8b 13                	mov    (%ebx),%edx
  100f6f:	85 d2                	test   %edx,%edx
  100f71:	75 0d                	jne    100f80 <filedup+0x30>
    panic("filedup");
  100f73:	c7 04 24 9d 67 10 00 	movl   $0x10679d,(%esp)
  100f7a:	e8 91 f9 ff ff       	call   100910 <panic>
  100f7f:	90                   	nop    
  f->ref++;
  100f80:	83 c0 01             	add    $0x1,%eax
  100f83:	89 43 04             	mov    %eax,0x4(%ebx)
  release(&file_table_lock);
  100f86:	c7 04 24 e0 99 10 00 	movl   $0x1099e0,(%esp)
  100f8d:	e8 0e 36 00 00       	call   1045a0 <release>
  return f;
}
  100f92:	89 d8                	mov    %ebx,%eax
  100f94:	83 c4 04             	add    $0x4,%esp
  100f97:	5b                   	pop    %ebx
  100f98:	5d                   	pop    %ebp
  100f99:	c3                   	ret    
  100f9a:	8d b6 00 00 00 00    	lea    0x0(%esi),%esi

00100fa0 <filealloc>:
}

// Allocate a file structure.
struct file*
filealloc(void)
{
  100fa0:	55                   	push   %ebp
  100fa1:	89 e5                	mov    %esp,%ebp
  100fa3:	53                   	push   %ebx
  100fa4:	83 ec 04             	sub    $0x4,%esp
  int i;

  acquire(&file_table_lock);
  100fa7:	c7 04 24 e0 99 10 00 	movl   $0x1099e0,(%esp)
  100fae:	e8 2d 36 00 00       	call   1045e0 <acquire>
  100fb3:	31 d2                	xor    %edx,%edx
  100fb5:	31 c0                	xor    %eax,%eax
  100fb7:	eb 12                	jmp    100fcb <filealloc+0x2b>
  100fb9:	8d b4 26 00 00 00 00 	lea    0x0(%esi),%esi
  for(i = 0; i < NFILE; i++){
  100fc0:	83 c2 01             	add    $0x1,%edx
  100fc3:	83 c0 18             	add    $0x18,%eax
  100fc6:	83 fa 64             	cmp    $0x64,%edx
  100fc9:	74 42                	je     10100d <filealloc+0x6d>
    if(file[i].type == FD_CLOSED){
  100fcb:	8b 88 80 90 10 00    	mov    0x109080(%eax),%ecx
  100fd1:	85 c9                	test   %ecx,%ecx
  100fd3:	75 eb                	jne    100fc0 <filealloc+0x20>
      file[i].type = FD_NONE;
  100fd5:	8d 04 52             	lea    (%edx,%edx,2),%eax
  100fd8:	8d 1c c5 00 00 00 00 	lea    0x0(,%eax,8),%ebx
  100fdf:	c7 04 c5 80 90 10 00 	movl   $0x1,0x109080(,%eax,8)
  100fe6:	01 00 00 00 
      file[i].ref = 1;
  100fea:	c7 04 c5 84 90 10 00 	movl   $0x1,0x109084(,%eax,8)
  100ff1:	01 00 00 00 
      release(&file_table_lock);
  100ff5:	c7 04 24 e0 99 10 00 	movl   $0x1099e0,(%esp)
  100ffc:	e8 9f 35 00 00       	call   1045a0 <release>
      return file + i;
  101001:	8d 83 80 90 10 00    	lea    0x109080(%ebx),%eax
    }
  }
  release(&file_table_lock);
  return 0;
}
  101007:	83 c4 04             	add    $0x4,%esp
  10100a:	5b                   	pop    %ebx
  10100b:	5d                   	pop    %ebp
  10100c:	c3                   	ret    
      file[i].ref = 1;
      release(&file_table_lock);
      return file + i;
    }
  }
  release(&file_table_lock);
  10100d:	c7 04 24 e0 99 10 00 	movl   $0x1099e0,(%esp)
  101014:	e8 87 35 00 00       	call   1045a0 <release>
  return 0;
}
  101019:	83 c4 04             	add    $0x4,%esp
      file[i].ref = 1;
      release(&file_table_lock);
      return file + i;
    }
  }
  release(&file_table_lock);
  10101c:	31 c0                	xor    %eax,%eax
  return 0;
}
  10101e:	5b                   	pop    %ebx
  10101f:	5d                   	pop    %ebp
  101020:	c3                   	ret    
  101021:	eb 0d                	jmp    101030 <fileclose>
  101023:	90                   	nop    
  101024:	90                   	nop    
  101025:	90                   	nop    
  101026:	90                   	nop    
  101027:	90                   	nop    
  101028:	90                   	nop    
  101029:	90                   	nop    
  10102a:	90                   	nop    
  10102b:	90                   	nop    
  10102c:	90                   	nop    
  10102d:	90                   	nop    
  10102e:	90                   	nop    
  10102f:	90                   	nop    

00101030 <fileclose>:
}

// Close file f.  (Decrement ref count, close when reaches 0.)
void
fileclose(struct file *f)
{
  101030:	55                   	push   %ebp
  101031:	89 e5                	mov    %esp,%ebp
  101033:	83 ec 28             	sub    $0x28,%esp
  101036:	89 5d f4             	mov    %ebx,-0xc(%ebp)
  101039:	8b 5d 08             	mov    0x8(%ebp),%ebx
  10103c:	89 75 f8             	mov    %esi,-0x8(%ebp)
  10103f:	89 7d fc             	mov    %edi,-0x4(%ebp)
  struct file ff;

  acquire(&file_table_lock);
  101042:	c7 04 24 e0 99 10 00 	movl   $0x1099e0,(%esp)
  101049:	e8 92 35 00 00       	call   1045e0 <acquire>
  if(f->ref < 1 || f->type == FD_CLOSED)
  10104e:	8b 43 04             	mov    0x4(%ebx),%eax
  101051:	85 c0                	test   %eax,%eax
  101053:	7e 2b                	jle    101080 <fileclose+0x50>
  101055:	8b 33                	mov    (%ebx),%esi
  101057:	85 f6                	test   %esi,%esi
  101059:	74 25                	je     101080 <fileclose+0x50>
    panic("fileclose");
  if(--f->ref > 0){
  10105b:	83 e8 01             	sub    $0x1,%eax
  10105e:	85 c0                	test   %eax,%eax
  101060:	89 43 04             	mov    %eax,0x4(%ebx)
  101063:	74 2b                	je     101090 <fileclose+0x60>
    release(&file_table_lock);
  101065:	c7 45 08 e0 99 10 00 	movl   $0x1099e0,0x8(%ebp)
    pipeclose(ff.pipe, ff.writable);
  else if(ff.type == FD_INODE)
    iput(ff.ip);
  else
    panic("fileclose");
}
  10106c:	8b 5d f4             	mov    -0xc(%ebp),%ebx
  10106f:	8b 75 f8             	mov    -0x8(%ebp),%esi
  101072:	8b 7d fc             	mov    -0x4(%ebp),%edi
  101075:	89 ec                	mov    %ebp,%esp
  101077:	5d                   	pop    %ebp

  acquire(&file_table_lock);
  if(f->ref < 1 || f->type == FD_CLOSED)
    panic("fileclose");
  if(--f->ref > 0){
    release(&file_table_lock);
  101078:	e9 23 35 00 00       	jmp    1045a0 <release>
  10107d:	8d 76 00             	lea    0x0(%esi),%esi
  if(ff.type == FD_PIPE)
    pipeclose(ff.pipe, ff.writable);
  else if(ff.type == FD_INODE)
    iput(ff.ip);
  else
    panic("fileclose");
  101080:	c7 04 24 a5 67 10 00 	movl   $0x1067a5,(%esp)
  101087:	e8 84 f8 ff ff       	call   100910 <panic>
  10108c:	8d 74 26 00          	lea    0x0(%esi),%esi
    panic("fileclose");
  if(--f->ref > 0){
    release(&file_table_lock);
    return;
  }
  ff = *f;
  101090:	8b 43 0c             	mov    0xc(%ebx),%eax
  101093:	8b 33                	mov    (%ebx),%esi
  101095:	8b 7b 10             	mov    0x10(%ebx),%edi
  f->ref = 0;
  101098:	c7 43 04 00 00 00 00 	movl   $0x0,0x4(%ebx)
    panic("fileclose");
  if(--f->ref > 0){
    release(&file_table_lock);
    return;
  }
  ff = *f;
  10109f:	89 45 ec             	mov    %eax,-0x14(%ebp)
  1010a2:	0f b6 43 09          	movzbl 0x9(%ebx),%eax
  f->ref = 0;
  f->type = FD_CLOSED;
  1010a6:	c7 03 00 00 00 00    	movl   $0x0,(%ebx)
    panic("fileclose");
  if(--f->ref > 0){
    release(&file_table_lock);
    return;
  }
  ff = *f;
  1010ac:	88 45 f3             	mov    %al,-0xd(%ebp)
  f->ref = 0;
  f->type = FD_CLOSED;
  release(&file_table_lock);
  1010af:	c7 04 24 e0 99 10 00 	movl   $0x1099e0,(%esp)
  1010b6:	e8 e5 34 00 00       	call   1045a0 <release>
  
  if(ff.type == FD_PIPE)
  1010bb:	83 fe 02             	cmp    $0x2,%esi
  1010be:	74 19                	je     1010d9 <fileclose+0xa9>
    pipeclose(ff.pipe, ff.writable);
  else if(ff.type == FD_INODE)
  1010c0:	83 fe 03             	cmp    $0x3,%esi
  1010c3:	75 bb                	jne    101080 <fileclose+0x50>
    iput(ff.ip);
  1010c5:	89 7d 08             	mov    %edi,0x8(%ebp)
  else
    panic("fileclose");
}
  1010c8:	8b 5d f4             	mov    -0xc(%ebp),%ebx
  1010cb:	8b 75 f8             	mov    -0x8(%ebp),%esi
  1010ce:	8b 7d fc             	mov    -0x4(%ebp),%edi
  1010d1:	89 ec                	mov    %ebp,%esp
  1010d3:	5d                   	pop    %ebp
  release(&file_table_lock);
  
  if(ff.type == FD_PIPE)
    pipeclose(ff.pipe, ff.writable);
  else if(ff.type == FD_INODE)
    iput(ff.ip);
  1010d4:	e9 07 0a 00 00       	jmp    101ae0 <iput>
  f->ref = 0;
  f->type = FD_CLOSED;
  release(&file_table_lock);
  
  if(ff.type == FD_PIPE)
    pipeclose(ff.pipe, ff.writable);
  1010d9:	0f be 45 f3          	movsbl -0xd(%ebp),%eax
  1010dd:	89 44 24 04          	mov    %eax,0x4(%esp)
  1010e1:	8b 45 ec             	mov    -0x14(%ebp),%eax
  1010e4:	89 04 24             	mov    %eax,(%esp)
  1010e7:	e8 b4 1f 00 00       	call   1030a0 <pipeclose>
  else if(ff.type == FD_INODE)
    iput(ff.ip);
  else
    panic("fileclose");
}
  1010ec:	8b 5d f4             	mov    -0xc(%ebp),%ebx
  1010ef:	8b 75 f8             	mov    -0x8(%ebp),%esi
  1010f2:	8b 7d fc             	mov    -0x4(%ebp),%edi
  1010f5:	89 ec                	mov    %ebp,%esp
  1010f7:	5d                   	pop    %ebp
  1010f8:	c3                   	ret    
  1010f9:	8d b4 26 00 00 00 00 	lea    0x0(%esi),%esi

00101100 <fileinit>:
struct spinlock file_table_lock;
struct file file[NFILE];

void
fileinit(void)
{
  101100:	55                   	push   %ebp
  101101:	89 e5                	mov    %esp,%ebp
  101103:	83 ec 08             	sub    $0x8,%esp
  initlock(&file_table_lock, "file_table");
  101106:	c7 44 24 04 af 67 10 	movl   $0x1067af,0x4(%esp)
  10110d:	00 
  10110e:	c7 04 24 e0 99 10 00 	movl   $0x1099e0,(%esp)
  101115:	e8 06 33 00 00       	call   104420 <initlock>
}
  10111a:	c9                   	leave  
  10111b:	c3                   	ret    
  10111c:	90                   	nop    
  10111d:	90                   	nop    
  10111e:	90                   	nop    
  10111f:	90                   	nop    

00101120 <stati>:
}

// Copy stat information from inode.
void
stati(struct inode *ip, struct stat *st)
{
  101120:	55                   	push   %ebp
  101121:	89 e5                	mov    %esp,%ebp
  101123:	8b 55 08             	mov    0x8(%ebp),%edx
  101126:	8b 4d 0c             	mov    0xc(%ebp),%ecx
  st->dev = ip->dev;
  101129:	8b 02                	mov    (%edx),%eax
  10112b:	89 01                	mov    %eax,(%ecx)
  st->ino = ip->inum;
  10112d:	8b 42 04             	mov    0x4(%edx),%eax
  101130:	89 41 04             	mov    %eax,0x4(%ecx)
  st->type = ip->type;
  101133:	0f b7 42 10          	movzwl 0x10(%edx),%eax
  101137:	66 89 41 08          	mov    %ax,0x8(%ecx)
  st->nlink = ip->nlink;
  10113b:	0f b7 42 16          	movzwl 0x16(%edx),%eax
  10113f:	66 89 41 0a          	mov    %ax,0xa(%ecx)
  st->size = ip->size;
  101143:	8b 42 18             	mov    0x18(%edx),%eax
  101146:	89 41 0c             	mov    %eax,0xc(%ecx)
}
  101149:	5d                   	pop    %ebp
  10114a:	c3                   	ret    
  10114b:	90                   	nop    
  10114c:	8d 74 26 00          	lea    0x0(%esi),%esi

00101150 <iupdate>:
}

// Copy inode, which has changed, from memory to disk.
void
iupdate(struct inode *ip)
{
  101150:	55                   	push   %ebp
  101151:	89 e5                	mov    %esp,%ebp
  101153:	56                   	push   %esi
  101154:	53                   	push   %ebx
  101155:	83 ec 10             	sub    $0x10,%esp
  101158:	8b 5d 08             	mov    0x8(%ebp),%ebx
  struct buf *bp;
  struct dinode *dip;

  bp = bread(ip->dev, IBLOCK(ip->inum));
  10115b:	8b 43 04             	mov    0x4(%ebx),%eax
  10115e:	c1 e8 03             	shr    $0x3,%eax
  101161:	83 c0 02             	add    $0x2,%eax
  101164:	89 44 24 04          	mov    %eax,0x4(%esp)
  101168:	8b 03                	mov    (%ebx),%eax
  10116a:	89 04 24             	mov    %eax,(%esp)
  10116d:	e8 ae ef ff ff       	call   100120 <bread>
  101172:	89 c6                	mov    %eax,%esi
  dip = (struct dinode*)bp->data + ip->inum%IPB;
  101174:	8b 43 04             	mov    0x4(%ebx),%eax
  101177:	83 e0 07             	and    $0x7,%eax
  10117a:	c1 e0 06             	shl    $0x6,%eax
  10117d:	8d 54 06 18          	lea    0x18(%esi,%eax,1),%edx
  dip->type = ip->type;
  101181:	0f b7 43 10          	movzwl 0x10(%ebx),%eax
  101185:	66 89 02             	mov    %ax,(%edx)
  dip->major = ip->major;
  101188:	0f b7 43 12          	movzwl 0x12(%ebx),%eax
  10118c:	66 89 42 02          	mov    %ax,0x2(%edx)
  dip->minor = ip->minor;
  101190:	0f b7 43 14          	movzwl 0x14(%ebx),%eax
  101194:	66 89 42 04          	mov    %ax,0x4(%edx)
  dip->nlink = ip->nlink;
  101198:	0f b7 43 16          	movzwl 0x16(%ebx),%eax
  10119c:	66 89 42 06          	mov    %ax,0x6(%edx)
  dip->size = ip->size;
  1011a0:	8b 43 18             	mov    0x18(%ebx),%eax
  memmove(dip->addrs, ip->addrs, sizeof(ip->addrs));
  1011a3:	83 c3 1c             	add    $0x1c,%ebx
  dip = (struct dinode*)bp->data + ip->inum%IPB;
  dip->type = ip->type;
  dip->major = ip->major;
  dip->minor = ip->minor;
  dip->nlink = ip->nlink;
  dip->size = ip->size;
  1011a6:	89 42 08             	mov    %eax,0x8(%edx)
  memmove(dip->addrs, ip->addrs, sizeof(ip->addrs));
  1011a9:	83 c2 0c             	add    $0xc,%edx
  1011ac:	89 5c 24 04          	mov    %ebx,0x4(%esp)
  1011b0:	89 14 24             	mov    %edx,(%esp)
  1011b3:	c7 44 24 08 34 00 00 	movl   $0x34,0x8(%esp)
  1011ba:	00 
  1011bb:	e8 30 35 00 00       	call   1046f0 <memmove>
  bwrite(bp);
  1011c0:	89 34 24             	mov    %esi,(%esp)
  1011c3:	e8 28 ef ff ff       	call   1000f0 <bwrite>
  brelse(bp);
  1011c8:	89 75 08             	mov    %esi,0x8(%ebp)
}
  1011cb:	83 c4 10             	add    $0x10,%esp
  1011ce:	5b                   	pop    %ebx
  1011cf:	5e                   	pop    %esi
  1011d0:	5d                   	pop    %ebp
  dip->minor = ip->minor;
  dip->nlink = ip->nlink;
  dip->size = ip->size;
  memmove(dip->addrs, ip->addrs, sizeof(ip->addrs));
  bwrite(bp);
  brelse(bp);
  1011d1:	e9 9a ee ff ff       	jmp    100070 <brelse>
  1011d6:	8d 76 00             	lea    0x0(%esi),%esi
  1011d9:	8d bc 27 00 00 00 00 	lea    0x0(%edi),%edi

001011e0 <readsb>:
static void itrunc(struct inode*);

// Read the super block.
static void
readsb(int dev, struct superblock *sb)
{
  1011e0:	55                   	push   %ebp
  1011e1:	89 e5                	mov    %esp,%ebp
  1011e3:	83 ec 18             	sub    $0x18,%esp
  struct buf *bp;
  
  bp = bread(dev, 1);
  1011e6:	c7 44 24 04 01 00 00 	movl   $0x1,0x4(%esp)
  1011ed:	00 
static void itrunc(struct inode*);

// Read the super block.
static void
readsb(int dev, struct superblock *sb)
{
  1011ee:	89 5d f8             	mov    %ebx,-0x8(%ebp)
  1011f1:	89 75 fc             	mov    %esi,-0x4(%ebp)
  1011f4:	89 d6                	mov    %edx,%esi
  struct buf *bp;
  
  bp = bread(dev, 1);
  1011f6:	89 04 24             	mov    %eax,(%esp)
  1011f9:	e8 22 ef ff ff       	call   100120 <bread>
  memmove(sb, bp->data, sizeof(*sb));
  1011fe:	89 34 24             	mov    %esi,(%esp)
  101201:	c7 44 24 08 0c 00 00 	movl   $0xc,0x8(%esp)
  101208:	00 
static void
readsb(int dev, struct superblock *sb)
{
  struct buf *bp;
  
  bp = bread(dev, 1);
  101209:	89 c3                	mov    %eax,%ebx
  memmove(sb, bp->data, sizeof(*sb));
  10120b:	8d 40 18             	lea    0x18(%eax),%eax
  10120e:	89 44 24 04          	mov    %eax,0x4(%esp)
  101212:	e8 d9 34 00 00       	call   1046f0 <memmove>
  brelse(bp);
  101217:	89 1c 24             	mov    %ebx,(%esp)
  10121a:	e8 51 ee ff ff       	call   100070 <brelse>
}
  10121f:	8b 5d f8             	mov    -0x8(%ebp),%ebx
  101222:	8b 75 fc             	mov    -0x4(%ebp),%esi
  101225:	89 ec                	mov    %ebp,%esp
  101227:	5d                   	pop    %ebp
  101228:	c3                   	ret    
  101229:	8d b4 26 00 00 00 00 	lea    0x0(%esi),%esi

00101230 <balloc>:
// Blocks. 

// Allocate a disk block.
static uint
balloc(uint dev)
{
  101230:	55                   	push   %ebp
  101231:	89 e5                	mov    %esp,%ebp
  101233:	57                   	push   %edi
  101234:	56                   	push   %esi
  101235:	53                   	push   %ebx
  101236:	83 ec 2c             	sub    $0x2c,%esp
  int b, bi, m;
  struct buf *bp;
  struct superblock sb;

  bp = 0;
  readsb(dev, &sb);
  101239:	8d 55 e8             	lea    -0x18(%ebp),%edx
// Blocks. 

// Allocate a disk block.
static uint
balloc(uint dev)
{
  10123c:	89 45 dc             	mov    %eax,-0x24(%ebp)
  int b, bi, m;
  struct buf *bp;
  struct superblock sb;

  bp = 0;
  readsb(dev, &sb);
  10123f:	e8 9c ff ff ff       	call   1011e0 <readsb>
  for(b = 0; b < sb.size; b += BPB){
  101244:	8b 45 e8             	mov    -0x18(%ebp),%eax
  101247:	85 c0                	test   %eax,%eax
  101249:	0f 84 a6 00 00 00    	je     1012f5 <balloc+0xc5>
  10124f:	c7 45 e0 00 00 00 00 	movl   $0x0,-0x20(%ebp)
    bp = bread(dev, BBLOCK(b, sb.ninodes));
  101256:	8b 45 e0             	mov    -0x20(%ebp),%eax
  101259:	31 f6                	xor    %esi,%esi
  10125b:	8b 55 f0             	mov    -0x10(%ebp),%edx
  10125e:	c1 f8 1f             	sar    $0x1f,%eax
  101261:	c1 e8 14             	shr    $0x14,%eax
  101264:	03 45 e0             	add    -0x20(%ebp),%eax
  101267:	c1 ea 03             	shr    $0x3,%edx
  10126a:	c1 f8 0c             	sar    $0xc,%eax
  10126d:	8d 54 02 03          	lea    0x3(%edx,%eax,1),%edx
  101271:	8b 45 dc             	mov    -0x24(%ebp),%eax
  101274:	89 54 24 04          	mov    %edx,0x4(%esp)
  101278:	89 04 24             	mov    %eax,(%esp)
  10127b:	e8 a0 ee ff ff       	call   100120 <bread>
  101280:	89 c7                	mov    %eax,%edi
  101282:	eb 0b                	jmp    10128f <balloc+0x5f>
    for(bi = 0; bi < BPB; bi++){
  101284:	83 c6 01             	add    $0x1,%esi
  101287:	81 fe 00 10 00 00    	cmp    $0x1000,%esi
  10128d:	74 4b                	je     1012da <balloc+0xaa>
      m = 1 << (bi % 8);
  10128f:	89 f0                	mov    %esi,%eax
  101291:	bb 01 00 00 00       	mov    $0x1,%ebx
  101296:	c1 f8 1f             	sar    $0x1f,%eax
  101299:	c1 e8 1d             	shr    $0x1d,%eax
  10129c:	8d 14 06             	lea    (%esi,%eax,1),%edx
  10129f:	89 d1                	mov    %edx,%ecx
  1012a1:	83 e1 07             	and    $0x7,%ecx
  1012a4:	29 c1                	sub    %eax,%ecx
      if((bp->data[bi/8] & m) == 0){  // Is block free?
  1012a6:	c1 fa 03             	sar    $0x3,%edx
  bp = 0;
  readsb(dev, &sb);
  for(b = 0; b < sb.size; b += BPB){
    bp = bread(dev, BBLOCK(b, sb.ninodes));
    for(bi = 0; bi < BPB; bi++){
      m = 1 << (bi % 8);
  1012a9:	d3 e3                	shl    %cl,%ebx
      if((bp->data[bi/8] & m) == 0){  // Is block free?
  1012ab:	0f b6 4c 17 18       	movzbl 0x18(%edi,%edx,1),%ecx
  1012b0:	0f b6 c1             	movzbl %cl,%eax
  1012b3:	85 d8                	test   %ebx,%eax
  1012b5:	75 cd                	jne    101284 <balloc+0x54>
        bp->data[bi/8] |= m;  // Mark block in use on disk.
  1012b7:	09 d9                	or     %ebx,%ecx
  1012b9:	88 4c 17 18          	mov    %cl,0x18(%edi,%edx,1)
        bwrite(bp);
  1012bd:	89 3c 24             	mov    %edi,(%esp)
  1012c0:	e8 2b ee ff ff       	call   1000f0 <bwrite>
        brelse(bp);
  1012c5:	89 3c 24             	mov    %edi,(%esp)
  1012c8:	e8 a3 ed ff ff       	call   100070 <brelse>
  1012cd:	8b 45 e0             	mov    -0x20(%ebp),%eax
      }
    }
    brelse(bp);
  }
  panic("balloc: out of blocks");
}
  1012d0:	83 c4 2c             	add    $0x2c,%esp
  1012d3:	5b                   	pop    %ebx
    for(bi = 0; bi < BPB; bi++){
      m = 1 << (bi % 8);
      if((bp->data[bi/8] & m) == 0){  // Is block free?
        bp->data[bi/8] |= m;  // Mark block in use on disk.
        bwrite(bp);
        brelse(bp);
  1012d4:	01 f0                	add    %esi,%eax
      }
    }
    brelse(bp);
  }
  panic("balloc: out of blocks");
}
  1012d6:	5e                   	pop    %esi
  1012d7:	5f                   	pop    %edi
  1012d8:	5d                   	pop    %ebp
  1012d9:	c3                   	ret    
        bwrite(bp);
        brelse(bp);
        return b + bi;
      }
    }
    brelse(bp);
  1012da:	89 3c 24             	mov    %edi,(%esp)
  1012dd:	e8 8e ed ff ff       	call   100070 <brelse>
  struct buf *bp;
  struct superblock sb;

  bp = 0;
  readsb(dev, &sb);
  for(b = 0; b < sb.size; b += BPB){
  1012e2:	81 45 e0 00 10 00 00 	addl   $0x1000,-0x20(%ebp)
  1012e9:	8b 45 e0             	mov    -0x20(%ebp),%eax
  1012ec:	39 45 e8             	cmp    %eax,-0x18(%ebp)
  1012ef:	0f 87 61 ff ff ff    	ja     101256 <balloc+0x26>
        return b + bi;
      }
    }
    brelse(bp);
  }
  panic("balloc: out of blocks");
  1012f5:	c7 04 24 ba 67 10 00 	movl   $0x1067ba,(%esp)
  1012fc:	e8 0f f6 ff ff       	call   100910 <panic>
  101301:	eb 0d                	jmp    101310 <bmap>
  101303:	90                   	nop    
  101304:	90                   	nop    
  101305:	90                   	nop    
  101306:	90                   	nop    
  101307:	90                   	nop    
  101308:	90                   	nop    
  101309:	90                   	nop    
  10130a:	90                   	nop    
  10130b:	90                   	nop    
  10130c:	90                   	nop    
  10130d:	90                   	nop    
  10130e:	90                   	nop    
  10130f:	90                   	nop    

00101310 <bmap>:

// Return the disk block address of the nth block in inode ip.
// If there is no such block, alloc controls whether one is allocated.
static uint
bmap(struct inode *ip, uint bn, int alloc)
{
  101310:	55                   	push   %ebp
  101311:	89 e5                	mov    %esp,%ebp
  101313:	83 ec 28             	sub    $0x28,%esp
  uint addr, *a;
  struct buf *bp;

  if(bn < NDIRECT){
  101316:	83 fa 0a             	cmp    $0xa,%edx

// Return the disk block address of the nth block in inode ip.
// If there is no such block, alloc controls whether one is allocated.
static uint
bmap(struct inode *ip, uint bn, int alloc)
{
  101319:	89 5d f4             	mov    %ebx,-0xc(%ebp)
  10131c:	89 d3                	mov    %edx,%ebx
  10131e:	89 7d fc             	mov    %edi,-0x4(%ebp)
  101321:	89 c7                	mov    %eax,%edi
  101323:	89 75 f8             	mov    %esi,-0x8(%ebp)
  101326:	89 4d e0             	mov    %ecx,-0x20(%ebp)
  uint addr, *a;
  struct buf *bp;

  if(bn < NDIRECT){
  101329:	77 25                	ja     101350 <bmap+0x40>
    if((addr = ip->addrs[bn]) == 0){
  10132b:	8b 74 90 1c          	mov    0x1c(%eax,%edx,4),%esi
  10132f:	85 f6                	test   %esi,%esi
  101331:	75 0d                	jne    101340 <bmap+0x30>
      if(!alloc)
  101333:	85 c9                	test   %ecx,%ecx
  101335:	0f 85 e5 00 00 00    	jne    101420 <bmap+0x110>
      }

      brelse(bp);
      return addr;
  }
  panic("bmap: out of range");
  10133b:	be ff ff ff ff       	mov    $0xffffffff,%esi
}
  101340:	89 f0                	mov    %esi,%eax
  101342:	8b 5d f4             	mov    -0xc(%ebp),%ebx
  101345:	8b 75 f8             	mov    -0x8(%ebp),%esi
  101348:	8b 7d fc             	mov    -0x4(%ebp),%edi
  10134b:	89 ec                	mov    %ebp,%esp
  10134d:	5d                   	pop    %ebp
  10134e:	c3                   	ret    
  10134f:	90                   	nop    
        return -1;
      ip->addrs[bn] = addr = balloc(ip->dev);
    }
    return addr;
  }
  bn -= NDIRECT;
  101350:	8d 72 f5             	lea    -0xb(%edx),%esi

  if(bn < NINDIRECT){
  101353:	83 fe 7f             	cmp    $0x7f,%esi
  101356:	76 6d                	jbe    1013c5 <bmap+0xb5>
    }
    brelse(bp);
    return addr;
  }

  bn -= NINDIRECT;
  101358:	81 eb 8b 00 00 00    	sub    $0x8b,%ebx

  if(bn < NDBLINDIRECT) {
  10135e:	81 fb ff 3f 00 00    	cmp    $0x3fff,%ebx
    }
    brelse(bp);
    return addr;
  }

  bn -= NINDIRECT;
  101364:	89 5d f0             	mov    %ebx,-0x10(%ebp)

  if(bn < NDBLINDIRECT) {
  101367:	0f 87 41 01 00 00    	ja     1014ae <bmap+0x19e>
    if((addr = ip->addrs[DBLINDIRECT]) == 0) {
  10136d:	8b 40 4c             	mov    0x4c(%eax),%eax
  101370:	85 c0                	test   %eax,%eax
  101372:	75 11                	jne    101385 <bmap+0x75>
	if(!alloc)
  101374:	8b 5d e0             	mov    -0x20(%ebp),%ebx
  101377:	85 db                	test   %ebx,%ebx
  101379:	74 c0                	je     10133b <bmap+0x2b>
	  return -1;
	ip->addrs[DBLINDIRECT] = addr = balloc(ip->dev);
  10137b:	8b 07                	mov    (%edi),%eax
  10137d:	e8 ae fe ff ff       	call   101230 <balloc>
  101382:	89 47 4c             	mov    %eax,0x4c(%edi)
      }
      bp = bread(ip->dev, addr); //indirect block pointer - buffer
  101385:	89 44 24 04          	mov    %eax,0x4(%esp)
  101389:	8b 07                	mov    (%edi),%eax
  10138b:	89 04 24             	mov    %eax,(%esp)
  10138e:	e8 8d ed ff ff       	call   100120 <bread>
  101393:	89 c6                	mov    %eax,%esi
      a = (uint*)bp->data;

      int block_index = bn / NINDIRECT;
      int index_in_block = bn % NINDIRECT;
      if((addr = a[block_index]) == 0) {
  101395:	8b 45 f0             	mov    -0x10(%ebp),%eax
  101398:	c1 e8 07             	shr    $0x7,%eax
  10139b:	8d 44 86 18          	lea    0x18(%esi,%eax,4),%eax
  10139f:	8b 18                	mov    (%eax),%ebx
  1013a1:	89 45 e8             	mov    %eax,-0x18(%ebp)
  1013a4:	85 db                	test   %ebx,%ebx
  1013a6:	0f 85 9c 00 00 00    	jne    101448 <bmap+0x138>
	if(!alloc) {
  1013ac:	8b 4d e0             	mov    -0x20(%ebp),%ecx
  1013af:	85 c9                	test   %ecx,%ecx
  1013b1:	75 7f                	jne    101432 <bmap+0x122>
	  brelse(bp);
  1013b3:	89 34 24             	mov    %esi,(%esp)
  1013b6:	be ff ff ff ff       	mov    $0xffffffff,%esi
  1013bb:	e8 b0 ec ff ff       	call   100070 <brelse>
  1013c0:	e9 7b ff ff ff       	jmp    101340 <bmap+0x30>
  }
  bn -= NDIRECT;

  if(bn < NINDIRECT){
    // Load indirect block, allocating if necessary.
    if((addr = ip->addrs[INDIRECT]) == 0){
  1013c5:	8b 40 48             	mov    0x48(%eax),%eax
  1013c8:	85 c0                	test   %eax,%eax
  1013ca:	75 15                	jne    1013e1 <bmap+0xd1>
      if(!alloc)
  1013cc:	8b 45 e0             	mov    -0x20(%ebp),%eax
  1013cf:	85 c0                	test   %eax,%eax
  1013d1:	0f 84 64 ff ff ff    	je     10133b <bmap+0x2b>
        return -1;
      ip->addrs[INDIRECT] = addr = balloc(ip->dev);
  1013d7:	8b 07                	mov    (%edi),%eax
  1013d9:	e8 52 fe ff ff       	call   101230 <balloc>
  1013de:	89 47 48             	mov    %eax,0x48(%edi)
    }
    bp = bread(ip->dev, addr); //indirect block pointer - buffer
  1013e1:	89 44 24 04          	mov    %eax,0x4(%esp)
  1013e5:	8b 07                	mov    (%edi),%eax
  1013e7:	89 04 24             	mov    %eax,(%esp)
  1013ea:	e8 31 ed ff ff       	call   100120 <bread>
    a = (uint*)bp->data;
  
    if((addr = a[bn]) == 0){
  1013ef:	8d 74 b0 18          	lea    0x18(%eax,%esi,4),%esi
    if((addr = ip->addrs[INDIRECT]) == 0){
      if(!alloc)
        return -1;
      ip->addrs[INDIRECT] = addr = balloc(ip->dev);
    }
    bp = bread(ip->dev, addr); //indirect block pointer - buffer
  1013f3:	89 c3                	mov    %eax,%ebx
    a = (uint*)bp->data;
  
    if((addr = a[bn]) == 0){
  1013f5:	89 75 e4             	mov    %esi,-0x1c(%ebp)
  1013f8:	8b 36                	mov    (%esi),%esi
  1013fa:	85 f6                	test   %esi,%esi
  1013fc:	0f 85 87 00 00 00    	jne    101489 <bmap+0x179>
      if(!alloc){
  101402:	8b 75 e0             	mov    -0x20(%ebp),%esi
  101405:	85 f6                	test   %esi,%esi
  101407:	0f 85 89 00 00 00    	jne    101496 <bmap+0x186>
      bp = bread(ip->dev, addr); //indirect block pointer - buffer
      a = (uint*)bp->data;

      if((addr = a[index_in_block]) == 0){
	if(!alloc){
	  brelse(bp);
  10140d:	89 1c 24             	mov    %ebx,(%esp)
  101410:	be ff ff ff ff       	mov    $0xffffffff,%esi
  101415:	e8 56 ec ff ff       	call   100070 <brelse>
  10141a:	e9 21 ff ff ff       	jmp    101340 <bmap+0x30>
  10141f:	90                   	nop    

  if(bn < NDIRECT){
    if((addr = ip->addrs[bn]) == 0){
      if(!alloc)
        return -1;
      ip->addrs[bn] = addr = balloc(ip->dev);
  101420:	8b 00                	mov    (%eax),%eax
  101422:	e8 09 fe ff ff       	call   101230 <balloc>
  101427:	89 c6                	mov    %eax,%esi
  101429:	89 44 9f 1c          	mov    %eax,0x1c(%edi,%ebx,4)
  10142d:	e9 0e ff ff ff       	jmp    101340 <bmap+0x30>
      if((addr = a[block_index]) == 0) {
	if(!alloc) {
	  brelse(bp);
	  return -1;
	}
	a[block_index] = addr = balloc(ip->dev);
  101432:	8b 07                	mov    (%edi),%eax
  101434:	e8 f7 fd ff ff       	call   101230 <balloc>
  101439:	89 c3                	mov    %eax,%ebx
  10143b:	8b 45 e8             	mov    -0x18(%ebp),%eax
  10143e:	89 18                	mov    %ebx,(%eax)
	bwrite(bp);
  101440:	89 34 24             	mov    %esi,(%esp)
  101443:	e8 a8 ec ff ff       	call   1000f0 <bwrite>
      }
      bp = bread(ip->dev, addr); //indirect block pointer - buffer
  101448:	8b 07                	mov    (%edi),%eax
  10144a:	89 5c 24 04          	mov    %ebx,0x4(%esp)
  10144e:	89 04 24             	mov    %eax,(%esp)
  101451:	e8 ca ec ff ff       	call   100120 <bread>
      a = (uint*)bp->data;

      if((addr = a[index_in_block]) == 0){
  101456:	83 65 f0 7f          	andl   $0x7f,-0x10(%ebp)
	  return -1;
	}
	a[block_index] = addr = balloc(ip->dev);
	bwrite(bp);
      }
      bp = bread(ip->dev, addr); //indirect block pointer - buffer
  10145a:	89 c3                	mov    %eax,%ebx
      a = (uint*)bp->data;

      if((addr = a[index_in_block]) == 0){
  10145c:	8b 45 f0             	mov    -0x10(%ebp),%eax
  10145f:	8d 44 83 18          	lea    0x18(%ebx,%eax,4),%eax
  101463:	8b 30                	mov    (%eax),%esi
  101465:	89 45 ec             	mov    %eax,-0x14(%ebp)
  101468:	85 f6                	test   %esi,%esi
  10146a:	75 1d                	jne    101489 <bmap+0x179>
	if(!alloc){
  10146c:	8b 55 e0             	mov    -0x20(%ebp),%edx
  10146f:	85 d2                	test   %edx,%edx
  101471:	74 9a                	je     10140d <bmap+0xfd>
	  brelse(bp);
	  return -1;
	}
	a[index_in_block] = addr = balloc(ip->dev);
  101473:	8b 07                	mov    (%edi),%eax
  101475:	e8 b6 fd ff ff       	call   101230 <balloc>
  10147a:	89 c6                	mov    %eax,%esi
  10147c:	8b 45 ec             	mov    -0x14(%ebp),%eax
  10147f:	89 30                	mov    %esi,(%eax)
	bwrite(bp);
  101481:	89 1c 24             	mov    %ebx,(%esp)
  101484:	e8 67 ec ff ff       	call   1000f0 <bwrite>
      }

      brelse(bp);
  101489:	89 1c 24             	mov    %ebx,(%esp)
  10148c:	e8 df eb ff ff       	call   100070 <brelse>
  101491:	e9 aa fe ff ff       	jmp    101340 <bmap+0x30>
    if((addr = a[bn]) == 0){
      if(!alloc){
        brelse(bp);
        return -1;
      }
      a[bn] = addr = balloc(ip->dev);
  101496:	8b 07                	mov    (%edi),%eax
  101498:	e8 93 fd ff ff       	call   101230 <balloc>
  10149d:	89 c6                	mov    %eax,%esi
  10149f:	8b 45 e4             	mov    -0x1c(%ebp),%eax
  1014a2:	89 30                	mov    %esi,(%eax)
      bwrite(bp);
  1014a4:	89 1c 24             	mov    %ebx,(%esp)
  1014a7:	e8 44 ec ff ff       	call   1000f0 <bwrite>
  1014ac:	eb db                	jmp    101489 <bmap+0x179>
      }

      brelse(bp);
      return addr;
  }
  panic("bmap: out of range");
  1014ae:	c7 04 24 d0 67 10 00 	movl   $0x1067d0,(%esp)
  1014b5:	e8 56 f4 ff ff       	call   100910 <panic>
  1014ba:	8d b6 00 00 00 00    	lea    0x0(%esi),%esi

001014c0 <checki>:
  return _namei(path, 1, name);
}

int
checki(struct inode * ip, int off)
{
  1014c0:	55                   	push   %ebp
  1014c1:	89 e5                	mov    %esp,%ebp
  1014c3:	53                   	push   %ebx
  1014c4:	83 ec 04             	sub    $0x4,%esp
  1014c7:	8b 5d 08             	mov    0x8(%ebp),%ebx
  1014ca:	8b 45 0c             	mov    0xc(%ebp),%eax
  if(ip->size < off)
  1014cd:	39 43 18             	cmp    %eax,0x18(%ebx)
  1014d0:	73 0e                	jae    1014e0 <checki+0x20>
	return 0;
  return bcheck(ip->dev, bmap(ip, off/BSIZE, 0));
}
  1014d2:	83 c4 04             	add    $0x4,%esp
  1014d5:	31 c0                	xor    %eax,%eax
  1014d7:	5b                   	pop    %ebx
  1014d8:	5d                   	pop    %ebp
  1014d9:	c3                   	ret    
  1014da:	8d b6 00 00 00 00    	lea    0x0(%esi),%esi
int
checki(struct inode * ip, int off)
{
  if(ip->size < off)
	return 0;
  return bcheck(ip->dev, bmap(ip, off/BSIZE, 0));
  1014e0:	89 c2                	mov    %eax,%edx
  1014e2:	31 c9                	xor    %ecx,%ecx
  1014e4:	c1 fa 1f             	sar    $0x1f,%edx
  1014e7:	c1 ea 17             	shr    $0x17,%edx
  1014ea:	01 c2                	add    %eax,%edx
  1014ec:	89 d8                	mov    %ebx,%eax
  1014ee:	c1 fa 09             	sar    $0x9,%edx
  1014f1:	e8 1a fe ff ff       	call   101310 <bmap>
  1014f6:	89 45 0c             	mov    %eax,0xc(%ebp)
  1014f9:	8b 03                	mov    (%ebx),%eax
  1014fb:	89 45 08             	mov    %eax,0x8(%ebp)
}
  1014fe:	83 c4 04             	add    $0x4,%esp
  101501:	5b                   	pop    %ebx
  101502:	5d                   	pop    %ebp
int
checki(struct inode * ip, int off)
{
  if(ip->size < off)
	return 0;
  return bcheck(ip->dev, bmap(ip, off/BSIZE, 0));
  101503:	e9 f8 ea ff ff       	jmp    100000 <bcheck>
  101508:	90                   	nop    
  101509:	8d b4 26 00 00 00 00 	lea    0x0(%esi),%esi

00101510 <writei>:
}

// Write data to inode.
int
writei(struct inode *ip, char *src, uint off, uint n)
{
  101510:	55                   	push   %ebp
  101511:	89 e5                	mov    %esp,%ebp
  101513:	57                   	push   %edi
  101514:	56                   	push   %esi
  101515:	53                   	push   %ebx
  101516:	83 ec 1c             	sub    $0x1c,%esp
  101519:	8b 45 08             	mov    0x8(%ebp),%eax
  10151c:	8b 55 0c             	mov    0xc(%ebp),%edx
  10151f:	8b 7d 10             	mov    0x10(%ebp),%edi
  101522:	89 45 ec             	mov    %eax,-0x14(%ebp)
  101525:	8b 45 14             	mov    0x14(%ebp),%eax
  101528:	89 55 e8             	mov    %edx,-0x18(%ebp)
  uint tot, m;
  struct buf *bp;

  if(ip->type == T_DEV){
  10152b:	8b 55 ec             	mov    -0x14(%ebp),%edx
}

// Write data to inode.
int
writei(struct inode *ip, char *src, uint off, uint n)
{
  10152e:	89 45 e4             	mov    %eax,-0x1c(%ebp)
  uint tot, m;
  struct buf *bp;

  if(ip->type == T_DEV){
  101531:	66 83 7a 10 03       	cmpw   $0x3,0x10(%edx)
  101536:	0f 84 c9 00 00 00    	je     101605 <writei+0xf5>
    if(ip->major < 0 || ip->major >= NDEV || !devsw[ip->major].write)
      return -1;
    return devsw[ip->major].write(ip, src, n);
  }

  if(off + n < off)
  10153c:	8b 45 e4             	mov    -0x1c(%ebp),%eax
  10153f:	01 f8                	add    %edi,%eax
  101541:	39 c7                	cmp    %eax,%edi
  101543:	0f 87 c6 00 00 00    	ja     10160f <writei+0xff>
    return -1;
  if(off + n > MAXFILE*BSIZE)
  101549:	3d 00 16 81 00       	cmp    $0x811600,%eax
  10154e:	76 0a                	jbe    10155a <writei+0x4a>
    n = MAXFILE*BSIZE - off;
  101550:	c7 45 e4 00 16 81 00 	movl   $0x811600,-0x1c(%ebp)
  101557:	29 7d e4             	sub    %edi,-0x1c(%ebp)

  for(tot=0; tot<n; tot+=m, off+=m, src+=m){
  10155a:	8b 45 e4             	mov    -0x1c(%ebp),%eax
  10155d:	85 c0                	test   %eax,%eax
  10155f:	0f 84 95 00 00 00    	je     1015fa <writei+0xea>
  101565:	c7 45 f0 00 00 00 00 	movl   $0x0,-0x10(%ebp)
  10156c:	8d 74 26 00          	lea    0x0(%esi),%esi
    bp = bread(ip->dev, bmap(ip, off/BSIZE, 1));
  101570:	8b 45 ec             	mov    -0x14(%ebp),%eax
  101573:	89 fa                	mov    %edi,%edx
  101575:	b9 01 00 00 00       	mov    $0x1,%ecx
  10157a:	c1 ea 09             	shr    $0x9,%edx
    m = min(n - tot, BSIZE - off%BSIZE);
  10157d:	bb 00 02 00 00       	mov    $0x200,%ebx
    return -1;
  if(off + n > MAXFILE*BSIZE)
    n = MAXFILE*BSIZE - off;

  for(tot=0; tot<n; tot+=m, off+=m, src+=m){
    bp = bread(ip->dev, bmap(ip, off/BSIZE, 1));
  101582:	e8 89 fd ff ff       	call   101310 <bmap>
  101587:	89 44 24 04          	mov    %eax,0x4(%esp)
  10158b:	8b 55 ec             	mov    -0x14(%ebp),%edx
  10158e:	8b 02                	mov    (%edx),%eax
  101590:	89 04 24             	mov    %eax,(%esp)
  101593:	e8 88 eb ff ff       	call   100120 <bread>
    m = min(n - tot, BSIZE - off%BSIZE);
  101598:	89 fa                	mov    %edi,%edx
  10159a:	81 e2 ff 01 00 00    	and    $0x1ff,%edx
  1015a0:	29 d3                	sub    %edx,%ebx
    return -1;
  if(off + n > MAXFILE*BSIZE)
    n = MAXFILE*BSIZE - off;

  for(tot=0; tot<n; tot+=m, off+=m, src+=m){
    bp = bread(ip->dev, bmap(ip, off/BSIZE, 1));
  1015a2:	89 c6                	mov    %eax,%esi
    m = min(n - tot, BSIZE - off%BSIZE);
  1015a4:	8b 45 e4             	mov    -0x1c(%ebp),%eax
  1015a7:	2b 45 f0             	sub    -0x10(%ebp),%eax
  1015aa:	39 c3                	cmp    %eax,%ebx
  1015ac:	76 02                	jbe    1015b0 <writei+0xa0>
  1015ae:	89 c3                	mov    %eax,%ebx
    memmove(bp->data + off%BSIZE, src, m);
  1015b0:	89 5c 24 08          	mov    %ebx,0x8(%esp)
  1015b4:	8b 45 e8             	mov    -0x18(%ebp),%eax
  if(off + n < off)
    return -1;
  if(off + n > MAXFILE*BSIZE)
    n = MAXFILE*BSIZE - off;

  for(tot=0; tot<n; tot+=m, off+=m, src+=m){
  1015b7:	01 df                	add    %ebx,%edi
    bp = bread(ip->dev, bmap(ip, off/BSIZE, 1));
    m = min(n - tot, BSIZE - off%BSIZE);
    memmove(bp->data + off%BSIZE, src, m);
  1015b9:	89 44 24 04          	mov    %eax,0x4(%esp)
  1015bd:	8d 44 16 18          	lea    0x18(%esi,%edx,1),%eax
  1015c1:	89 04 24             	mov    %eax,(%esp)
  1015c4:	e8 27 31 00 00       	call   1046f0 <memmove>
    bwrite(bp);
  1015c9:	89 34 24             	mov    %esi,(%esp)
  1015cc:	e8 1f eb ff ff       	call   1000f0 <bwrite>
    brelse(bp);
  1015d1:	89 34 24             	mov    %esi,(%esp)
  1015d4:	e8 97 ea ff ff       	call   100070 <brelse>
  if(off + n < off)
    return -1;
  if(off + n > MAXFILE*BSIZE)
    n = MAXFILE*BSIZE - off;

  for(tot=0; tot<n; tot+=m, off+=m, src+=m){
  1015d9:	01 5d f0             	add    %ebx,-0x10(%ebp)
  1015dc:	8b 55 f0             	mov    -0x10(%ebp),%edx
  1015df:	01 5d e8             	add    %ebx,-0x18(%ebp)
  1015e2:	39 55 e4             	cmp    %edx,-0x1c(%ebp)
  1015e5:	77 89                	ja     101570 <writei+0x60>
    memmove(bp->data + off%BSIZE, src, m);
    bwrite(bp);
    brelse(bp);
  }

  if(n > 0 && off > ip->size){
  1015e7:	8b 45 ec             	mov    -0x14(%ebp),%eax
  1015ea:	39 78 18             	cmp    %edi,0x18(%eax)
  1015ed:	73 0b                	jae    1015fa <writei+0xea>
    ip->size = off;
  1015ef:	89 78 18             	mov    %edi,0x18(%eax)
    iupdate(ip);
  1015f2:	89 04 24             	mov    %eax,(%esp)
  1015f5:	e8 56 fb ff ff       	call   101150 <iupdate>
  }
  return n;
  1015fa:	8b 45 e4             	mov    -0x1c(%ebp),%eax
}
  1015fd:	83 c4 1c             	add    $0x1c,%esp
  101600:	5b                   	pop    %ebx
  101601:	5e                   	pop    %esi
  101602:	5f                   	pop    %edi
  101603:	5d                   	pop    %ebp
  101604:	c3                   	ret    
{
  uint tot, m;
  struct buf *bp;

  if(ip->type == T_DEV){
    if(ip->major < 0 || ip->major >= NDEV || !devsw[ip->major].write)
  101605:	0f b7 42 12          	movzwl 0x12(%edx),%eax
  101609:	66 83 f8 09          	cmp    $0x9,%ax
  10160d:	76 0d                	jbe    10161c <writei+0x10c>
  if(n > 0 && off > ip->size){
    ip->size = off;
    iupdate(ip);
  }
  return n;
}
  10160f:	83 c4 1c             	add    $0x1c,%esp

  if(n > 0 && off > ip->size){
    ip->size = off;
    iupdate(ip);
  }
  return n;
  101612:	b8 ff ff ff ff       	mov    $0xffffffff,%eax
}
  101617:	5b                   	pop    %ebx
  101618:	5e                   	pop    %esi
  101619:	5f                   	pop    %edi
  10161a:	5d                   	pop    %ebp
  10161b:	c3                   	ret    
{
  uint tot, m;
  struct buf *bp;

  if(ip->type == T_DEV){
    if(ip->major < 0 || ip->major >= NDEV || !devsw[ip->major].write)
  10161c:	98                   	cwtl   
  10161d:	8b 0c c5 24 9a 10 00 	mov    0x109a24(,%eax,8),%ecx
  101624:	85 c9                	test   %ecx,%ecx
  101626:	74 e7                	je     10160f <writei+0xff>
      return -1;
    return devsw[ip->major].write(ip, src, n);
  101628:	8b 45 e4             	mov    -0x1c(%ebp),%eax
  10162b:	89 45 10             	mov    %eax,0x10(%ebp)
  if(n > 0 && off > ip->size){
    ip->size = off;
    iupdate(ip);
  }
  return n;
}
  10162e:	83 c4 1c             	add    $0x1c,%esp
  101631:	5b                   	pop    %ebx
  101632:	5e                   	pop    %esi
  101633:	5f                   	pop    %edi
  101634:	5d                   	pop    %ebp
  struct buf *bp;

  if(ip->type == T_DEV){
    if(ip->major < 0 || ip->major >= NDEV || !devsw[ip->major].write)
      return -1;
    return devsw[ip->major].write(ip, src, n);
  101635:	ff e1                	jmp    *%ecx
  101637:	89 f6                	mov    %esi,%esi
  101639:	8d bc 27 00 00 00 00 	lea    0x0(%edi),%edi

00101640 <readi>:
}

// Read data from inode.
int
readi(struct inode *ip, char *dst, uint off, uint n)
{
  101640:	55                   	push   %ebp
  101641:	89 e5                	mov    %esp,%ebp
  101643:	83 ec 28             	sub    $0x28,%esp
  101646:	89 7d fc             	mov    %edi,-0x4(%ebp)
  101649:	8b 7d 08             	mov    0x8(%ebp),%edi
  10164c:	8b 45 0c             	mov    0xc(%ebp),%eax
  10164f:	8b 4d 14             	mov    0x14(%ebp),%ecx
  101652:	89 5d f4             	mov    %ebx,-0xc(%ebp)
  101655:	8b 5d 10             	mov    0x10(%ebp),%ebx
  101658:	89 75 f8             	mov    %esi,-0x8(%ebp)
  uint tot, m;
  struct buf *bp;

  if(ip->type == T_DEV){
  10165b:	66 83 7f 10 03       	cmpw   $0x3,0x10(%edi)
}

// Read data from inode.
int
readi(struct inode *ip, char *dst, uint off, uint n)
{
  101660:	89 45 e8             	mov    %eax,-0x18(%ebp)
  101663:	89 4d e4             	mov    %ecx,-0x1c(%ebp)
  uint tot, m;
  struct buf *bp;

  if(ip->type == T_DEV){
  101666:	74 19                	je     101681 <readi+0x41>
    if(ip->major < 0 || ip->major >= NDEV || !devsw[ip->major].read)
      return -1;
    return devsw[ip->major].read(ip, dst, n);
  }

  if(off > ip->size || off + n < off)
  101668:	8b 47 18             	mov    0x18(%edi),%eax
  10166b:	39 d8                	cmp    %ebx,%eax
  10166d:	73 3c                	jae    1016ab <readi+0x6b>
    bp = bread(ip->dev, bmap(ip, off/BSIZE, 0));
    m = min(n - tot, BSIZE - off%BSIZE);
    memmove(dst, bp->data + off%BSIZE, m);
    brelse(bp);
  }
  return n;
  10166f:	b8 ff ff ff ff       	mov    $0xffffffff,%eax
}
  101674:	8b 5d f4             	mov    -0xc(%ebp),%ebx
  101677:	8b 75 f8             	mov    -0x8(%ebp),%esi
  10167a:	8b 7d fc             	mov    -0x4(%ebp),%edi
  10167d:	89 ec                	mov    %ebp,%esp
  10167f:	5d                   	pop    %ebp
  101680:	c3                   	ret    
{
  uint tot, m;
  struct buf *bp;

  if(ip->type == T_DEV){
    if(ip->major < 0 || ip->major >= NDEV || !devsw[ip->major].read)
  101681:	0f b7 47 12          	movzwl 0x12(%edi),%eax
  101685:	66 83 f8 09          	cmp    $0x9,%ax
  101689:	77 e4                	ja     10166f <readi+0x2f>
  10168b:	98                   	cwtl   
  10168c:	8b 0c c5 20 9a 10 00 	mov    0x109a20(,%eax,8),%ecx
  101693:	85 c9                	test   %ecx,%ecx
  101695:	74 d8                	je     10166f <readi+0x2f>
      return -1;
    return devsw[ip->major].read(ip, dst, n);
  101697:	8b 45 e4             	mov    -0x1c(%ebp),%eax
    m = min(n - tot, BSIZE - off%BSIZE);
    memmove(dst, bp->data + off%BSIZE, m);
    brelse(bp);
  }
  return n;
}
  10169a:	8b 5d f4             	mov    -0xc(%ebp),%ebx
  10169d:	8b 75 f8             	mov    -0x8(%ebp),%esi
  1016a0:	8b 7d fc             	mov    -0x4(%ebp),%edi
  struct buf *bp;

  if(ip->type == T_DEV){
    if(ip->major < 0 || ip->major >= NDEV || !devsw[ip->major].read)
      return -1;
    return devsw[ip->major].read(ip, dst, n);
  1016a3:	89 45 10             	mov    %eax,0x10(%ebp)
    m = min(n - tot, BSIZE - off%BSIZE);
    memmove(dst, bp->data + off%BSIZE, m);
    brelse(bp);
  }
  return n;
}
  1016a6:	89 ec                	mov    %ebp,%esp
  1016a8:	5d                   	pop    %ebp
  struct buf *bp;

  if(ip->type == T_DEV){
    if(ip->major < 0 || ip->major >= NDEV || !devsw[ip->major].read)
      return -1;
    return devsw[ip->major].read(ip, dst, n);
  1016a9:	ff e1                	jmp    *%ecx
  }

  if(off > ip->size || off + n < off)
  1016ab:	8b 55 e4             	mov    -0x1c(%ebp),%edx
  1016ae:	01 da                	add    %ebx,%edx
  1016b0:	39 d3                	cmp    %edx,%ebx
  1016b2:	77 bb                	ja     10166f <readi+0x2f>
    return -1;
  if(off + n > ip->size)
  1016b4:	39 d0                	cmp    %edx,%eax
  1016b6:	73 05                	jae    1016bd <readi+0x7d>
    n = ip->size - off;
  1016b8:	29 d8                	sub    %ebx,%eax
  1016ba:	89 45 e4             	mov    %eax,-0x1c(%ebp)

  for(tot=0; tot<n; tot+=m, off+=m, dst+=m){
  1016bd:	8b 45 e4             	mov    -0x1c(%ebp),%eax
  1016c0:	85 c0                	test   %eax,%eax
  1016c2:	74 7b                	je     10173f <readi+0xff>
  1016c4:	c7 45 ec 00 00 00 00 	movl   $0x0,-0x14(%ebp)
  1016cb:	90                   	nop    
  1016cc:	8d 74 26 00          	lea    0x0(%esi),%esi
    bp = bread(ip->dev, bmap(ip, off/BSIZE, 0));
  1016d0:	89 da                	mov    %ebx,%edx
  1016d2:	31 c9                	xor    %ecx,%ecx
  1016d4:	c1 ea 09             	shr    $0x9,%edx
  1016d7:	89 f8                	mov    %edi,%eax
  1016d9:	e8 32 fc ff ff       	call   101310 <bmap>
    m = min(n - tot, BSIZE - off%BSIZE);
  1016de:	be 00 02 00 00       	mov    $0x200,%esi
    return -1;
  if(off + n > ip->size)
    n = ip->size - off;

  for(tot=0; tot<n; tot+=m, off+=m, dst+=m){
    bp = bread(ip->dev, bmap(ip, off/BSIZE, 0));
  1016e3:	89 44 24 04          	mov    %eax,0x4(%esp)
  1016e7:	8b 07                	mov    (%edi),%eax
  1016e9:	89 04 24             	mov    %eax,(%esp)
  1016ec:	e8 2f ea ff ff       	call   100120 <bread>
    m = min(n - tot, BSIZE - off%BSIZE);
  1016f1:	89 da                	mov    %ebx,%edx
  1016f3:	81 e2 ff 01 00 00    	and    $0x1ff,%edx
  1016f9:	29 d6                	sub    %edx,%esi
    return -1;
  if(off + n > ip->size)
    n = ip->size - off;

  for(tot=0; tot<n; tot+=m, off+=m, dst+=m){
    bp = bread(ip->dev, bmap(ip, off/BSIZE, 0));
  1016fb:	89 45 f0             	mov    %eax,-0x10(%ebp)
    m = min(n - tot, BSIZE - off%BSIZE);
  1016fe:	8b 45 e4             	mov    -0x1c(%ebp),%eax
  101701:	2b 45 ec             	sub    -0x14(%ebp),%eax
  101704:	39 c6                	cmp    %eax,%esi
  101706:	76 02                	jbe    10170a <readi+0xca>
  101708:	89 c6                	mov    %eax,%esi
    memmove(dst, bp->data + off%BSIZE, m);
  10170a:	89 74 24 08          	mov    %esi,0x8(%esp)
  10170e:	8b 4d f0             	mov    -0x10(%ebp),%ecx
  if(off > ip->size || off + n < off)
    return -1;
  if(off + n > ip->size)
    n = ip->size - off;

  for(tot=0; tot<n; tot+=m, off+=m, dst+=m){
  101711:	01 f3                	add    %esi,%ebx
    bp = bread(ip->dev, bmap(ip, off/BSIZE, 0));
    m = min(n - tot, BSIZE - off%BSIZE);
    memmove(dst, bp->data + off%BSIZE, m);
  101713:	8d 44 11 18          	lea    0x18(%ecx,%edx,1),%eax
  101717:	89 44 24 04          	mov    %eax,0x4(%esp)
  10171b:	8b 45 e8             	mov    -0x18(%ebp),%eax
  10171e:	89 04 24             	mov    %eax,(%esp)
  101721:	e8 ca 2f 00 00       	call   1046f0 <memmove>
    brelse(bp);
  101726:	8b 4d f0             	mov    -0x10(%ebp),%ecx
  101729:	89 0c 24             	mov    %ecx,(%esp)
  10172c:	e8 3f e9 ff ff       	call   100070 <brelse>
  if(off > ip->size || off + n < off)
    return -1;
  if(off + n > ip->size)
    n = ip->size - off;

  for(tot=0; tot<n; tot+=m, off+=m, dst+=m){
  101731:	01 75 ec             	add    %esi,-0x14(%ebp)
  101734:	8b 45 ec             	mov    -0x14(%ebp),%eax
  101737:	01 75 e8             	add    %esi,-0x18(%ebp)
  10173a:	39 45 e4             	cmp    %eax,-0x1c(%ebp)
  10173d:	77 91                	ja     1016d0 <readi+0x90>
    bp = bread(ip->dev, bmap(ip, off/BSIZE, 0));
    m = min(n - tot, BSIZE - off%BSIZE);
    memmove(dst, bp->data + off%BSIZE, m);
    brelse(bp);
  }
  return n;
  10173f:	8b 45 e4             	mov    -0x1c(%ebp),%eax
  101742:	e9 2d ff ff ff       	jmp    101674 <readi+0x34>
  101747:	89 f6                	mov    %esi,%esi
  101749:	8d bc 27 00 00 00 00 	lea    0x0(%edi),%edi

00101750 <idup>:

// Increment reference count for ip.
// Returns ip to enable ip = idup(ip1) idiom.
struct inode*
idup(struct inode *ip)
{
  101750:	55                   	push   %ebp
  101751:	89 e5                	mov    %esp,%ebp
  101753:	53                   	push   %ebx
  101754:	83 ec 04             	sub    $0x4,%esp
  101757:	8b 5d 08             	mov    0x8(%ebp),%ebx
  acquire(&icache.lock);
  10175a:	c7 04 24 80 9a 10 00 	movl   $0x109a80,(%esp)
  101761:	e8 7a 2e 00 00       	call   1045e0 <acquire>
  ip->ref++;
  101766:	83 43 08 01          	addl   $0x1,0x8(%ebx)
  release(&icache.lock);
  10176a:	c7 04 24 80 9a 10 00 	movl   $0x109a80,(%esp)
  101771:	e8 2a 2e 00 00       	call   1045a0 <release>
  return ip;
}
  101776:	89 d8                	mov    %ebx,%eax
  101778:	83 c4 04             	add    $0x4,%esp
  10177b:	5b                   	pop    %ebx
  10177c:	5d                   	pop    %ebp
  10177d:	c3                   	ret    
  10177e:	66 90                	xchg   %ax,%ax

00101780 <iget>:

// Find the inode with number inum on device dev
// and return the in-memory copy.
static struct inode*
iget(uint dev, uint inum)
{
  101780:	55                   	push   %ebp
  101781:	89 e5                	mov    %esp,%ebp
  101783:	57                   	push   %edi
  101784:	89 c7                	mov    %eax,%edi
  101786:	56                   	push   %esi
  struct inode *ip, *empty;

  acquire(&icache.lock);
  101787:	31 f6                	xor    %esi,%esi

// Find the inode with number inum on device dev
// and return the in-memory copy.
static struct inode*
iget(uint dev, uint inum)
{
  101789:	53                   	push   %ebx
  struct inode *ip, *empty;

  acquire(&icache.lock);
  10178a:	bb b4 9a 10 00       	mov    $0x109ab4,%ebx

// Find the inode with number inum on device dev
// and return the in-memory copy.
static struct inode*
iget(uint dev, uint inum)
{
  10178f:	83 ec 0c             	sub    $0xc,%esp
  101792:	89 55 f0             	mov    %edx,-0x10(%ebp)
  struct inode *ip, *empty;

  acquire(&icache.lock);
  101795:	c7 04 24 80 9a 10 00 	movl   $0x109a80,(%esp)
  10179c:	e8 3f 2e 00 00       	call   1045e0 <acquire>
  1017a1:	eb 0f                	jmp    1017b2 <iget+0x32>
    if(ip->ref > 0 && ip->dev == dev && ip->inum == inum){
      ip->ref++;
      release(&icache.lock);
      return ip;
    }
    if(empty == 0 && ip->ref == 0)    // Remember empty slot.
  1017a3:	85 f6                	test   %esi,%esi
  1017a5:	74 3a                	je     1017e1 <iget+0x61>

  acquire(&icache.lock);

  // Try for cached inode.
  empty = 0;
  for(ip = &icache.inode[0]; ip < &icache.inode[NINODE]; ip++){
  1017a7:	83 c3 50             	add    $0x50,%ebx
  1017aa:	81 fb 54 aa 10 00    	cmp    $0x10aa54,%ebx
  1017b0:	74 40                	je     1017f2 <iget+0x72>
    if(ip->ref > 0 && ip->dev == dev && ip->inum == inum){
  1017b2:	8b 43 08             	mov    0x8(%ebx),%eax
  1017b5:	85 c0                	test   %eax,%eax
  1017b7:	7e ea                	jle    1017a3 <iget+0x23>
  1017b9:	39 3b                	cmp    %edi,(%ebx)
  1017bb:	75 e6                	jne    1017a3 <iget+0x23>
  1017bd:	8b 55 f0             	mov    -0x10(%ebp),%edx
  1017c0:	39 53 04             	cmp    %edx,0x4(%ebx)
  1017c3:	75 de                	jne    1017a3 <iget+0x23>
      ip->ref++;
  1017c5:	83 c0 01             	add    $0x1,%eax
  1017c8:	89 43 08             	mov    %eax,0x8(%ebx)
      release(&icache.lock);
  1017cb:	c7 04 24 80 9a 10 00 	movl   $0x109a80,(%esp)
  1017d2:	e8 c9 2d 00 00       	call   1045a0 <release>
  ip->ref = 1;
  ip->flags = 0;
  release(&icache.lock);

  return ip;
}
  1017d7:	83 c4 0c             	add    $0xc,%esp
  1017da:	89 d8                	mov    %ebx,%eax
  1017dc:	5b                   	pop    %ebx
  1017dd:	5e                   	pop    %esi
  1017de:	5f                   	pop    %edi
  1017df:	5d                   	pop    %ebp
  1017e0:	c3                   	ret    
    if(ip->ref > 0 && ip->dev == dev && ip->inum == inum){
      ip->ref++;
      release(&icache.lock);
      return ip;
    }
    if(empty == 0 && ip->ref == 0)    // Remember empty slot.
  1017e1:	85 c0                	test   %eax,%eax
  1017e3:	75 c2                	jne    1017a7 <iget+0x27>
  1017e5:	89 de                	mov    %ebx,%esi

  acquire(&icache.lock);

  // Try for cached inode.
  empty = 0;
  for(ip = &icache.inode[0]; ip < &icache.inode[NINODE]; ip++){
  1017e7:	83 c3 50             	add    $0x50,%ebx
  1017ea:	81 fb 54 aa 10 00    	cmp    $0x10aa54,%ebx
  1017f0:	75 c0                	jne    1017b2 <iget+0x32>
    if(empty == 0 && ip->ref == 0)    // Remember empty slot.
      empty = ip;
  }

  // Allocate fresh inode.
  if(empty == 0)
  1017f2:	85 f6                	test   %esi,%esi
  1017f4:	74 2e                	je     101824 <iget+0xa4>
    panic("iget: no inodes");

  ip = empty;
  ip->dev = dev;
  ip->inum = inum;
  1017f6:	8b 45 f0             	mov    -0x10(%ebp),%eax
  ip->ref = 1;
  ip->flags = 0;
  release(&icache.lock);
  1017f9:	89 f3                	mov    %esi,%ebx
  // Allocate fresh inode.
  if(empty == 0)
    panic("iget: no inodes");

  ip = empty;
  ip->dev = dev;
  1017fb:	89 3e                	mov    %edi,(%esi)
  ip->inum = inum;
  ip->ref = 1;
  1017fd:	c7 46 08 01 00 00 00 	movl   $0x1,0x8(%esi)
  ip->flags = 0;
  101804:	c7 46 0c 00 00 00 00 	movl   $0x0,0xc(%esi)
  if(empty == 0)
    panic("iget: no inodes");

  ip = empty;
  ip->dev = dev;
  ip->inum = inum;
  10180b:	89 46 04             	mov    %eax,0x4(%esi)
  ip->ref = 1;
  ip->flags = 0;
  release(&icache.lock);
  10180e:	c7 04 24 80 9a 10 00 	movl   $0x109a80,(%esp)
  101815:	e8 86 2d 00 00       	call   1045a0 <release>

  return ip;
}
  10181a:	83 c4 0c             	add    $0xc,%esp
  10181d:	89 d8                	mov    %ebx,%eax
  10181f:	5b                   	pop    %ebx
  101820:	5e                   	pop    %esi
  101821:	5f                   	pop    %edi
  101822:	5d                   	pop    %ebp
  101823:	c3                   	ret    
      empty = ip;
  }

  // Allocate fresh inode.
  if(empty == 0)
    panic("iget: no inodes");
  101824:	c7 04 24 e3 67 10 00 	movl   $0x1067e3,(%esp)
  10182b:	e8 e0 f0 ff ff       	call   100910 <panic>

00101830 <namecmp>:

// Directories

int
namecmp(const char *s, const char *t)
{
  101830:	55                   	push   %ebp
  101831:	89 e5                	mov    %esp,%ebp
  101833:	83 ec 18             	sub    $0x18,%esp
  return strncmp(s, t, DIRSIZ);
  101836:	8b 45 0c             	mov    0xc(%ebp),%eax
  101839:	c7 44 24 08 0e 00 00 	movl   $0xe,0x8(%esp)
  101840:	00 
  101841:	89 44 24 04          	mov    %eax,0x4(%esp)
  101845:	8b 45 08             	mov    0x8(%ebp),%eax
  101848:	89 04 24             	mov    %eax,(%esp)
  10184b:	e8 00 2f 00 00       	call   104750 <strncmp>
}
  101850:	c9                   	leave  
  101851:	c3                   	ret    
  101852:	8d b4 26 00 00 00 00 	lea    0x0(%esi),%esi
  101859:	8d bc 27 00 00 00 00 	lea    0x0(%edi),%edi

00101860 <dirlookup>:
// Look for a directory entry in a directory.
// If found, set *poff to byte offset of entry.
// Caller must have already locked dp.
struct inode*
dirlookup(struct inode *dp, char *name, uint *poff)
{
  101860:	55                   	push   %ebp
  101861:	89 e5                	mov    %esp,%ebp
  101863:	57                   	push   %edi
  101864:	56                   	push   %esi
  101865:	53                   	push   %ebx
  101866:	83 ec 1c             	sub    $0x1c,%esp
  101869:	8b 45 08             	mov    0x8(%ebp),%eax
  10186c:	8b 55 0c             	mov    0xc(%ebp),%edx
  10186f:	8b 4d 10             	mov    0x10(%ebp),%ecx
  uint off, inum;
  struct buf *bp;
  struct dirent *de;

  if(dp->type != T_DIR)
  101872:	66 83 78 10 01       	cmpw   $0x1,0x10(%eax)
// Look for a directory entry in a directory.
// If found, set *poff to byte offset of entry.
// Caller must have already locked dp.
struct inode*
dirlookup(struct inode *dp, char *name, uint *poff)
{
  101877:	89 45 e8             	mov    %eax,-0x18(%ebp)
  10187a:	89 55 e4             	mov    %edx,-0x1c(%ebp)
  10187d:	89 4d e0             	mov    %ecx,-0x20(%ebp)
  uint off, inum;
  struct buf *bp;
  struct dirent *de;

  if(dp->type != T_DIR)
  101880:	0f 85 cd 00 00 00    	jne    101953 <dirlookup+0xf3>
    panic("dirlookup not DIR");

  for(off = 0; off < dp->size; off += BSIZE){
  101886:	8b 40 18             	mov    0x18(%eax),%eax
  uint off, inum;
  struct buf *bp;
  struct dirent *de;

  if(dp->type != T_DIR)
    panic("dirlookup not DIR");
  101889:	c7 45 f0 00 00 00 00 	movl   $0x0,-0x10(%ebp)

  for(off = 0; off < dp->size; off += BSIZE){
  101890:	85 c0                	test   %eax,%eax
  101892:	0f 84 b1 00 00 00    	je     101949 <dirlookup+0xe9>
    bp = bread(dp->dev, bmap(dp, off / BSIZE, 0));
  101898:	8b 55 f0             	mov    -0x10(%ebp),%edx
  10189b:	31 c9                	xor    %ecx,%ecx
  10189d:	8b 45 e8             	mov    -0x18(%ebp),%eax
  1018a0:	c1 ea 09             	shr    $0x9,%edx
  1018a3:	e8 68 fa ff ff       	call   101310 <bmap>
  1018a8:	89 44 24 04          	mov    %eax,0x4(%esp)
  1018ac:	8b 55 e8             	mov    -0x18(%ebp),%edx
  1018af:	8b 02                	mov    (%edx),%eax
  1018b1:	89 04 24             	mov    %eax,(%esp)
  1018b4:	e8 67 e8 ff ff       	call   100120 <bread>
    for(de = (struct dirent*)bp->data;
  1018b9:	8d 48 18             	lea    0x18(%eax),%ecx

  if(dp->type != T_DIR)
    panic("dirlookup not DIR");

  for(off = 0; off < dp->size; off += BSIZE){
    bp = bread(dp->dev, bmap(dp, off / BSIZE, 0));
  1018bc:	89 c7                	mov    %eax,%edi
    for(de = (struct dirent*)bp->data;
        de < (struct dirent*)(bp->data + BSIZE);
  1018be:	8d b0 18 02 00 00    	lea    0x218(%eax),%esi
  if(dp->type != T_DIR)
    panic("dirlookup not DIR");

  for(off = 0; off < dp->size; off += BSIZE){
    bp = bread(dp->dev, bmap(dp, off / BSIZE, 0));
    for(de = (struct dirent*)bp->data;
  1018c4:	89 cb                	mov    %ecx,%ebx
        de < (struct dirent*)(bp->data + BSIZE);
  1018c6:	39 f1                	cmp    %esi,%ecx
  if(dp->type != T_DIR)
    panic("dirlookup not DIR");

  for(off = 0; off < dp->size; off += BSIZE){
    bp = bread(dp->dev, bmap(dp, off / BSIZE, 0));
    for(de = (struct dirent*)bp->data;
  1018c8:	89 4d ec             	mov    %ecx,-0x14(%ebp)
        de < (struct dirent*)(bp->data + BSIZE);
  1018cb:	72 0a                	jb     1018d7 <dirlookup+0x77>
  1018cd:	eb 5c                	jmp    10192b <dirlookup+0xcb>
  1018cf:	90                   	nop    
        de++){
  1018d0:	83 c3 10             	add    $0x10,%ebx
    panic("dirlookup not DIR");

  for(off = 0; off < dp->size; off += BSIZE){
    bp = bread(dp->dev, bmap(dp, off / BSIZE, 0));
    for(de = (struct dirent*)bp->data;
        de < (struct dirent*)(bp->data + BSIZE);
  1018d3:	39 f3                	cmp    %esi,%ebx
  1018d5:	73 54                	jae    10192b <dirlookup+0xcb>
        de++){
      if(de->inum == 0)
  1018d7:	66 83 3b 00          	cmpw   $0x0,(%ebx)
  1018db:	90                   	nop    
  1018dc:	8d 74 26 00          	lea    0x0(%esi),%esi
  1018e0:	74 ee                	je     1018d0 <dirlookup+0x70>
        continue;
      if(namecmp(name, de->name) == 0){
  1018e2:	8d 43 02             	lea    0x2(%ebx),%eax
  1018e5:	89 44 24 04          	mov    %eax,0x4(%esp)
  1018e9:	8b 45 e4             	mov    -0x1c(%ebp),%eax
  1018ec:	89 04 24             	mov    %eax,(%esp)
  1018ef:	e8 3c ff ff ff       	call   101830 <namecmp>
  1018f4:	85 c0                	test   %eax,%eax
  1018f6:	75 d8                	jne    1018d0 <dirlookup+0x70>
        // entry matches path element
        if(poff)
  1018f8:	8b 45 e0             	mov    -0x20(%ebp),%eax
  1018fb:	85 c0                	test   %eax,%eax
  1018fd:	74 0e                	je     10190d <dirlookup+0xad>
          *poff = off + (uchar*)de - bp->data;
  1018ff:	8b 55 f0             	mov    -0x10(%ebp),%edx
  101902:	8b 4d e0             	mov    -0x20(%ebp),%ecx
  101905:	8d 04 13             	lea    (%ebx,%edx,1),%eax
  101908:	2b 45 ec             	sub    -0x14(%ebp),%eax
  10190b:	89 01                	mov    %eax,(%ecx)
        inum = de->inum;
  10190d:	0f b7 1b             	movzwl (%ebx),%ebx
        brelse(bp);
  101910:	89 3c 24             	mov    %edi,(%esp)
  101913:	e8 58 e7 ff ff       	call   100070 <brelse>
        return iget(dp->dev, inum);
  101918:	8b 4d e8             	mov    -0x18(%ebp),%ecx
  10191b:	89 da                	mov    %ebx,%edx
  10191d:	8b 01                	mov    (%ecx),%eax
      }
    }
    brelse(bp);
  }
  return 0;
}
  10191f:	83 c4 1c             	add    $0x1c,%esp
  101922:	5b                   	pop    %ebx
  101923:	5e                   	pop    %esi
  101924:	5f                   	pop    %edi
  101925:	5d                   	pop    %ebp
        // entry matches path element
        if(poff)
          *poff = off + (uchar*)de - bp->data;
        inum = de->inum;
        brelse(bp);
        return iget(dp->dev, inum);
  101926:	e9 55 fe ff ff       	jmp    101780 <iget>
      }
    }
    brelse(bp);
  10192b:	89 3c 24             	mov    %edi,(%esp)
  10192e:	e8 3d e7 ff ff       	call   100070 <brelse>
  struct dirent *de;

  if(dp->type != T_DIR)
    panic("dirlookup not DIR");

  for(off = 0; off < dp->size; off += BSIZE){
  101933:	8b 45 e8             	mov    -0x18(%ebp),%eax
  101936:	81 45 f0 00 02 00 00 	addl   $0x200,-0x10(%ebp)
  10193d:	8b 55 f0             	mov    -0x10(%ebp),%edx
  101940:	39 50 18             	cmp    %edx,0x18(%eax)
  101943:	0f 87 4f ff ff ff    	ja     101898 <dirlookup+0x38>
      }
    }
    brelse(bp);
  }
  return 0;
}
  101949:	83 c4 1c             	add    $0x1c,%esp
  10194c:	31 c0                	xor    %eax,%eax
  10194e:	5b                   	pop    %ebx
  10194f:	5e                   	pop    %esi
  101950:	5f                   	pop    %edi
  101951:	5d                   	pop    %ebp
  101952:	c3                   	ret    
  uint off, inum;
  struct buf *bp;
  struct dirent *de;

  if(dp->type != T_DIR)
    panic("dirlookup not DIR");
  101953:	c7 04 24 f3 67 10 00 	movl   $0x1067f3,(%esp)
  10195a:	e8 b1 ef ff ff       	call   100910 <panic>
  10195f:	90                   	nop    

00101960 <ialloc>:
}

// Allocate a new inode with the given type on device dev.
struct inode*
ialloc(uint dev, short type)
{
  101960:	55                   	push   %ebp
  101961:	89 e5                	mov    %esp,%ebp
  101963:	57                   	push   %edi
  101964:	56                   	push   %esi
  101965:	53                   	push   %ebx
  101966:	83 ec 2c             	sub    $0x2c,%esp
  101969:	0f b7 45 0c          	movzwl 0xc(%ebp),%eax
  int inum;
  struct buf *bp;
  struct dinode *dip;
  struct superblock sb;

  readsb(dev, &sb);
  10196d:	8d 55 e8             	lea    -0x18(%ebp),%edx
}

// Allocate a new inode with the given type on device dev.
struct inode*
ialloc(uint dev, short type)
{
  101970:	66 89 45 de          	mov    %ax,-0x22(%ebp)
  int inum;
  struct buf *bp;
  struct dinode *dip;
  struct superblock sb;

  readsb(dev, &sb);
  101974:	8b 45 08             	mov    0x8(%ebp),%eax
  101977:	e8 64 f8 ff ff       	call   1011e0 <readsb>
  for(inum = 1; inum < sb.ninodes; inum++){  // loop over inode blocks
  10197c:	83 7d f0 01          	cmpl   $0x1,-0x10(%ebp)
  101980:	0f 86 8e 00 00 00    	jbe    101a14 <ialloc+0xb4>
  101986:	bf 01 00 00 00       	mov    $0x1,%edi
  10198b:	c7 45 e0 01 00 00 00 	movl   $0x1,-0x20(%ebp)
  101992:	eb 14                	jmp    1019a8 <ialloc+0x48>
      dip->type = type;
      bwrite(bp);   // mark it allocated on the disk
      brelse(bp);
      return iget(dev, inum);
    }
    brelse(bp);
  101994:	89 34 24             	mov    %esi,(%esp)
  101997:	e8 d4 e6 ff ff       	call   100070 <brelse>
  struct buf *bp;
  struct dinode *dip;
  struct superblock sb;

  readsb(dev, &sb);
  for(inum = 1; inum < sb.ninodes; inum++){  // loop over inode blocks
  10199c:	83 45 e0 01          	addl   $0x1,-0x20(%ebp)
  1019a0:	8b 7d e0             	mov    -0x20(%ebp),%edi
  1019a3:	39 7d f0             	cmp    %edi,-0x10(%ebp)
  1019a6:	76 6c                	jbe    101a14 <ialloc+0xb4>
    bp = bread(dev, IBLOCK(inum));
  1019a8:	89 f8                	mov    %edi,%eax
  1019aa:	c1 e8 03             	shr    $0x3,%eax
  1019ad:	83 c0 02             	add    $0x2,%eax
  1019b0:	89 44 24 04          	mov    %eax,0x4(%esp)
  1019b4:	8b 45 08             	mov    0x8(%ebp),%eax
  1019b7:	89 04 24             	mov    %eax,(%esp)
  1019ba:	e8 61 e7 ff ff       	call   100120 <bread>
  1019bf:	89 c6                	mov    %eax,%esi
    dip = (struct dinode*)bp->data + inum%IPB;
  1019c1:	89 f8                	mov    %edi,%eax
  1019c3:	83 e0 07             	and    $0x7,%eax
  1019c6:	c1 e0 06             	shl    $0x6,%eax
  1019c9:	8d 5c 06 18          	lea    0x18(%esi,%eax,1),%ebx
    if(dip->type == 0){  // a free inode
  1019cd:	66 83 3b 00          	cmpw   $0x0,(%ebx)
  1019d1:	75 c1                	jne    101994 <ialloc+0x34>
      memset(dip, 0, sizeof(*dip));
  1019d3:	89 1c 24             	mov    %ebx,(%esp)
  1019d6:	c7 44 24 08 40 00 00 	movl   $0x40,0x8(%esp)
  1019dd:	00 
  1019de:	c7 44 24 04 00 00 00 	movl   $0x0,0x4(%esp)
  1019e5:	00 
  1019e6:	e8 55 2c 00 00       	call   104640 <memset>
      dip->type = type;
  1019eb:	0f b7 45 de          	movzwl -0x22(%ebp),%eax
  1019ef:	66 89 03             	mov    %ax,(%ebx)
      bwrite(bp);   // mark it allocated on the disk
  1019f2:	89 34 24             	mov    %esi,(%esp)
  1019f5:	e8 f6 e6 ff ff       	call   1000f0 <bwrite>
      brelse(bp);
  1019fa:	89 34 24             	mov    %esi,(%esp)
  1019fd:	e8 6e e6 ff ff       	call   100070 <brelse>
      return iget(dev, inum);
  101a02:	8b 45 08             	mov    0x8(%ebp),%eax
  101a05:	89 fa                	mov    %edi,%edx
  101a07:	e8 74 fd ff ff       	call   101780 <iget>
    }
    brelse(bp);
  }
  panic("ialloc: no inodes");
}
  101a0c:	83 c4 2c             	add    $0x2c,%esp
  101a0f:	5b                   	pop    %ebx
  101a10:	5e                   	pop    %esi
  101a11:	5f                   	pop    %edi
  101a12:	5d                   	pop    %ebp
  101a13:	c3                   	ret    
      brelse(bp);
      return iget(dev, inum);
    }
    brelse(bp);
  }
  panic("ialloc: no inodes");
  101a14:	c7 04 24 05 68 10 00 	movl   $0x106805,(%esp)
  101a1b:	e8 f0 ee ff ff       	call   100910 <panic>

00101a20 <bfree>:
}

// Free a disk block.
static void
bfree(int dev, uint b)
{
  101a20:	55                   	push   %ebp
  101a21:	89 e5                	mov    %esp,%ebp
  101a23:	57                   	push   %edi
  101a24:	89 d7                	mov    %edx,%edi
  101a26:	56                   	push   %esi
  101a27:	89 c6                	mov    %eax,%esi
  101a29:	53                   	push   %ebx
  101a2a:	83 ec 1c             	sub    $0x1c,%esp
static void
bzero(int dev, int bno)
{
  struct buf *bp;
  
  bp = bread(dev, bno);
  101a2d:	89 54 24 04          	mov    %edx,0x4(%esp)
  101a31:	89 04 24             	mov    %eax,(%esp)
  101a34:	e8 e7 e6 ff ff       	call   100120 <bread>
  memset(bp->data, 0, BSIZE);
  101a39:	c7 44 24 08 00 02 00 	movl   $0x200,0x8(%esp)
  101a40:	00 
  101a41:	c7 44 24 04 00 00 00 	movl   $0x0,0x4(%esp)
  101a48:	00 
static void
bzero(int dev, int bno)
{
  struct buf *bp;
  
  bp = bread(dev, bno);
  101a49:	89 c3                	mov    %eax,%ebx
  memset(bp->data, 0, BSIZE);
  101a4b:	8d 40 18             	lea    0x18(%eax),%eax
  101a4e:	89 04 24             	mov    %eax,(%esp)
  101a51:	e8 ea 2b 00 00       	call   104640 <memset>
  bwrite(bp);
  101a56:	89 1c 24             	mov    %ebx,(%esp)
  101a59:	e8 92 e6 ff ff       	call   1000f0 <bwrite>
  brelse(bp);
  101a5e:	89 1c 24             	mov    %ebx,(%esp)
  101a61:	e8 0a e6 ff ff       	call   100070 <brelse>
  struct superblock sb;
  int bi, m;

  bzero(dev, b);

  readsb(dev, &sb);
  101a66:	89 f0                	mov    %esi,%eax
  101a68:	8d 55 e8             	lea    -0x18(%ebp),%edx
  101a6b:	e8 70 f7 ff ff       	call   1011e0 <readsb>
  bp = bread(dev, BBLOCK(b, sb.ninodes));
  101a70:	8b 45 f0             	mov    -0x10(%ebp),%eax
  101a73:	89 fa                	mov    %edi,%edx
  101a75:	c1 ea 0c             	shr    $0xc,%edx
  101a78:	89 34 24             	mov    %esi,(%esp)
  bi = b % BPB;
  m = 1 << (bi % 8);
  101a7b:	be 01 00 00 00       	mov    $0x1,%esi
  int bi, m;

  bzero(dev, b);

  readsb(dev, &sb);
  bp = bread(dev, BBLOCK(b, sb.ninodes));
  101a80:	c1 e8 03             	shr    $0x3,%eax
  101a83:	8d 44 10 03          	lea    0x3(%eax,%edx,1),%eax
  101a87:	89 44 24 04          	mov    %eax,0x4(%esp)
  101a8b:	e8 90 e6 ff ff       	call   100120 <bread>
  101a90:	89 c3                	mov    %eax,%ebx
  bi = b % BPB;
  m = 1 << (bi % 8);
  101a92:	89 f8                	mov    %edi,%eax
  101a94:	25 ff 0f 00 00       	and    $0xfff,%eax
  101a99:	89 c1                	mov    %eax,%ecx
  101a9b:	83 e1 07             	and    $0x7,%ecx
  101a9e:	d3 e6                	shl    %cl,%esi
  if((bp->data[bi/8] & m) == 0)
  101aa0:	89 c1                	mov    %eax,%ecx
  101aa2:	c1 f9 03             	sar    $0x3,%ecx
  101aa5:	0f b6 54 0b 18       	movzbl 0x18(%ebx,%ecx,1),%edx
  101aaa:	0f b6 c2             	movzbl %dl,%eax
  101aad:	85 f0                	test   %esi,%eax
  101aaf:	74 22                	je     101ad3 <bfree+0xb3>
    panic("freeing free block");
  bp->data[bi/8] &= ~m;  // Mark block free on disk.
  101ab1:	89 f0                	mov    %esi,%eax
  101ab3:	f7 d0                	not    %eax
  101ab5:	21 d0                	and    %edx,%eax
  101ab7:	88 44 0b 18          	mov    %al,0x18(%ebx,%ecx,1)
  bwrite(bp);
  101abb:	89 1c 24             	mov    %ebx,(%esp)
  101abe:	e8 2d e6 ff ff       	call   1000f0 <bwrite>
  brelse(bp);
  101ac3:	89 1c 24             	mov    %ebx,(%esp)
  101ac6:	e8 a5 e5 ff ff       	call   100070 <brelse>
}
  101acb:	83 c4 1c             	add    $0x1c,%esp
  101ace:	5b                   	pop    %ebx
  101acf:	5e                   	pop    %esi
  101ad0:	5f                   	pop    %edi
  101ad1:	5d                   	pop    %ebp
  101ad2:	c3                   	ret    
  readsb(dev, &sb);
  bp = bread(dev, BBLOCK(b, sb.ninodes));
  bi = b % BPB;
  m = 1 << (bi % 8);
  if((bp->data[bi/8] & m) == 0)
    panic("freeing free block");
  101ad3:	c7 04 24 17 68 10 00 	movl   $0x106817,(%esp)
  101ada:	e8 31 ee ff ff       	call   100910 <panic>
  101adf:	90                   	nop    

00101ae0 <iput>:
}

// Caller holds reference to unlocked ip.  Drop reference.
void
iput(struct inode *ip)
{
  101ae0:	55                   	push   %ebp
  101ae1:	89 e5                	mov    %esp,%ebp
  101ae3:	57                   	push   %edi
  101ae4:	56                   	push   %esi
  101ae5:	53                   	push   %ebx
  101ae6:	83 ec 0c             	sub    $0xc,%esp
  101ae9:	8b 75 08             	mov    0x8(%ebp),%esi
  acquire(&icache.lock);
  101aec:	c7 04 24 80 9a 10 00 	movl   $0x109a80,(%esp)
  101af3:	e8 e8 2a 00 00       	call   1045e0 <acquire>
  if(ip->ref == 1 && (ip->flags & I_VALID) && ip->nlink == 0){
  101af8:	83 7e 08 01          	cmpl   $0x1,0x8(%esi)
  101afc:	0f 85 9e 00 00 00    	jne    101ba0 <iput+0xc0>
  101b02:	8b 46 0c             	mov    0xc(%esi),%eax
  101b05:	a8 02                	test   $0x2,%al
  101b07:	0f 84 93 00 00 00    	je     101ba0 <iput+0xc0>
  101b0d:	66 83 7e 16 00       	cmpw   $0x0,0x16(%esi)
  101b12:	0f 85 88 00 00 00    	jne    101ba0 <iput+0xc0>
    // inode is no longer used: truncate and free inode.
    if(ip->flags & I_BUSY)
  101b18:	a8 01                	test   $0x1,%al
  101b1a:	0f 85 e9 00 00 00    	jne    101c09 <iput+0x129>
      panic("iput busy");
    ip->flags |= I_BUSY;
  101b20:	83 c8 01             	or     $0x1,%eax
    release(&icache.lock);
  101b23:	31 db                	xor    %ebx,%ebx
  acquire(&icache.lock);
  if(ip->ref == 1 && (ip->flags & I_VALID) && ip->nlink == 0){
    // inode is no longer used: truncate and free inode.
    if(ip->flags & I_BUSY)
      panic("iput busy");
    ip->flags |= I_BUSY;
  101b25:	89 46 0c             	mov    %eax,0xc(%esi)
    release(&icache.lock);
  101b28:	c7 04 24 80 9a 10 00 	movl   $0x109a80,(%esp)
  101b2f:	e8 6c 2a 00 00       	call   1045a0 <release>
  101b34:	eb 08                	jmp    101b3e <iput+0x5e>
{
  int i, j;
  struct buf *bp;
  uint *a;

  for(i = 0; i < NDIRECT; i++){
  101b36:	83 c3 01             	add    $0x1,%ebx
  101b39:	83 fb 0b             	cmp    $0xb,%ebx
  101b3c:	74 1f                	je     101b5d <iput+0x7d>
    if(ip->addrs[i]){
  101b3e:	8b 54 9e 1c          	mov    0x1c(%esi,%ebx,4),%edx
  101b42:	85 d2                	test   %edx,%edx
  101b44:	74 f0                	je     101b36 <iput+0x56>
      bfree(ip->dev, ip->addrs[i]);
  101b46:	8b 06                	mov    (%esi),%eax
  101b48:	e8 d3 fe ff ff       	call   101a20 <bfree>
      ip->addrs[i] = 0;
  101b4d:	c7 44 9e 1c 00 00 00 	movl   $0x0,0x1c(%esi,%ebx,4)
  101b54:	00 
{
  int i, j;
  struct buf *bp;
  uint *a;

  for(i = 0; i < NDIRECT; i++){
  101b55:	83 c3 01             	add    $0x1,%ebx
  101b58:	83 fb 0b             	cmp    $0xb,%ebx
  101b5b:	75 e1                	jne    101b3e <iput+0x5e>
      bfree(ip->dev, ip->addrs[i]);
      ip->addrs[i] = 0;
    }
  }
  
  if(ip->addrs[INDIRECT]){
  101b5d:	8b 46 48             	mov    0x48(%esi),%eax
  101b60:	85 c0                	test   %eax,%eax
  101b62:	75 53                	jne    101bb7 <iput+0xd7>
    }
    brelse(bp);
    ip->addrs[INDIRECT] = 0;
  }

  ip->size = 0;
  101b64:	c7 46 18 00 00 00 00 	movl   $0x0,0x18(%esi)
  iupdate(ip);
  101b6b:	89 34 24             	mov    %esi,(%esp)
  101b6e:	e8 dd f5 ff ff       	call   101150 <iupdate>
    if(ip->flags & I_BUSY)
      panic("iput busy");
    ip->flags |= I_BUSY;
    release(&icache.lock);
    itrunc(ip);
    ip->type = 0;
  101b73:	66 c7 46 10 00 00    	movw   $0x0,0x10(%esi)
    iupdate(ip);
  101b79:	89 34 24             	mov    %esi,(%esp)
  101b7c:	e8 cf f5 ff ff       	call   101150 <iupdate>
    acquire(&icache.lock);
  101b81:	c7 04 24 80 9a 10 00 	movl   $0x109a80,(%esp)
  101b88:	e8 53 2a 00 00       	call   1045e0 <acquire>
    ip->flags &= ~I_BUSY;
  101b8d:	83 66 0c fe          	andl   $0xfffffffe,0xc(%esi)
    wakeup(ip);
  101b91:	89 34 24             	mov    %esi,(%esp)
  101b94:	e8 27 18 00 00       	call   1033c0 <wakeup>
  101b99:	8d b4 26 00 00 00 00 	lea    0x0(%esi),%esi
  }
  ip->ref--;
  101ba0:	83 6e 08 01          	subl   $0x1,0x8(%esi)
  release(&icache.lock);
  101ba4:	c7 45 08 80 9a 10 00 	movl   $0x109a80,0x8(%ebp)
}
  101bab:	83 c4 0c             	add    $0xc,%esp
  101bae:	5b                   	pop    %ebx
  101baf:	5e                   	pop    %esi
  101bb0:	5f                   	pop    %edi
  101bb1:	5d                   	pop    %ebp
    acquire(&icache.lock);
    ip->flags &= ~I_BUSY;
    wakeup(ip);
  }
  ip->ref--;
  release(&icache.lock);
  101bb2:	e9 e9 29 00 00       	jmp    1045a0 <release>
      ip->addrs[i] = 0;
    }
  }
  
  if(ip->addrs[INDIRECT]){
    bp = bread(ip->dev, ip->addrs[INDIRECT]);
  101bb7:	89 44 24 04          	mov    %eax,0x4(%esp)
  101bbb:	8b 06                	mov    (%esi),%eax
    a = (uint*)bp->data;
  101bbd:	30 db                	xor    %bl,%bl
      ip->addrs[i] = 0;
    }
  }
  
  if(ip->addrs[INDIRECT]){
    bp = bread(ip->dev, ip->addrs[INDIRECT]);
  101bbf:	89 04 24             	mov    %eax,(%esp)
  101bc2:	e8 59 e5 ff ff       	call   100120 <bread>
    a = (uint*)bp->data;
  101bc7:	89 c7                	mov    %eax,%edi
      ip->addrs[i] = 0;
    }
  }
  
  if(ip->addrs[INDIRECT]){
    bp = bread(ip->dev, ip->addrs[INDIRECT]);
  101bc9:	89 45 f0             	mov    %eax,-0x10(%ebp)
    a = (uint*)bp->data;
  101bcc:	83 c7 18             	add    $0x18,%edi
  101bcf:	31 c0                	xor    %eax,%eax
  101bd1:	eb 0d                	jmp    101be0 <iput+0x100>
    for(j = 0; j < NINDIRECT; j++){
  101bd3:	83 c3 01             	add    $0x1,%ebx
  101bd6:	81 fb 80 00 00 00    	cmp    $0x80,%ebx
  101bdc:	89 d8                	mov    %ebx,%eax
  101bde:	74 12                	je     101bf2 <iput+0x112>
      if(a[j])
  101be0:	8b 14 87             	mov    (%edi,%eax,4),%edx
  101be3:	85 d2                	test   %edx,%edx
  101be5:	74 ec                	je     101bd3 <iput+0xf3>
        bfree(ip->dev, a[j]);
  101be7:	8b 06                	mov    (%esi),%eax
  101be9:	e8 32 fe ff ff       	call   101a20 <bfree>
  101bee:	66 90                	xchg   %ax,%ax
  101bf0:	eb e1                	jmp    101bd3 <iput+0xf3>
    }
    brelse(bp);
  101bf2:	8b 45 f0             	mov    -0x10(%ebp),%eax
  101bf5:	89 04 24             	mov    %eax,(%esp)
  101bf8:	e8 73 e4 ff ff       	call   100070 <brelse>
    ip->addrs[INDIRECT] = 0;
  101bfd:	c7 46 48 00 00 00 00 	movl   $0x0,0x48(%esi)
  101c04:	e9 5b ff ff ff       	jmp    101b64 <iput+0x84>
{
  acquire(&icache.lock);
  if(ip->ref == 1 && (ip->flags & I_VALID) && ip->nlink == 0){
    // inode is no longer used: truncate and free inode.
    if(ip->flags & I_BUSY)
      panic("iput busy");
  101c09:	c7 04 24 2a 68 10 00 	movl   $0x10682a,(%esp)
  101c10:	e8 fb ec ff ff       	call   100910 <panic>
  101c15:	8d 74 26 00          	lea    0x0(%esi),%esi
  101c19:	8d bc 27 00 00 00 00 	lea    0x0(%edi),%edi

00101c20 <dirlink>:
}

// Write a new directory entry (name, ino) into the directory dp.
int
dirlink(struct inode *dp, char *name, uint ino)
{
  101c20:	55                   	push   %ebp
  101c21:	89 e5                	mov    %esp,%ebp
  101c23:	57                   	push   %edi
  101c24:	56                   	push   %esi
  101c25:	53                   	push   %ebx
  101c26:	83 ec 2c             	sub    $0x2c,%esp
  101c29:	8b 75 08             	mov    0x8(%ebp),%esi
  int off;
  struct dirent de;
  struct inode *ip;

  // Check that name is not present.
  if((ip = dirlookup(dp, name, 0)) != 0){
  101c2c:	8b 45 0c             	mov    0xc(%ebp),%eax
  101c2f:	c7 44 24 08 00 00 00 	movl   $0x0,0x8(%esp)
  101c36:	00 
  101c37:	89 34 24             	mov    %esi,(%esp)
  101c3a:	89 44 24 04          	mov    %eax,0x4(%esp)
  101c3e:	e8 1d fc ff ff       	call   101860 <dirlookup>
  101c43:	85 c0                	test   %eax,%eax
  101c45:	0f 85 98 00 00 00    	jne    101ce3 <dirlink+0xc3>
    iput(ip);
    return -1;
  }

  // Look for an empty dirent.
  for(off = 0; off < dp->size; off += sizeof(de)){
  101c4b:	8b 46 18             	mov    0x18(%esi),%eax
  101c4e:	85 c0                	test   %eax,%eax
  101c50:	0f 84 9c 00 00 00    	je     101cf2 <dirlink+0xd2>
  struct inode *ip;

  // Check that name is not present.
  if((ip = dirlookup(dp, name, 0)) != 0){
    iput(ip);
    return -1;
  101c56:	8d 7d e4             	lea    -0x1c(%ebp),%edi
  101c59:	31 db                	xor    %ebx,%ebx
  101c5b:	eb 0b                	jmp    101c68 <dirlink+0x48>
  101c5d:	8d 76 00             	lea    0x0(%esi),%esi
  }

  // Look for an empty dirent.
  for(off = 0; off < dp->size; off += sizeof(de)){
  101c60:	83 c3 10             	add    $0x10,%ebx
  101c63:	39 5e 18             	cmp    %ebx,0x18(%esi)
  101c66:	76 24                	jbe    101c8c <dirlink+0x6c>
    if(readi(dp, (char*)&de, off, sizeof(de)) != sizeof(de))
  101c68:	c7 44 24 0c 10 00 00 	movl   $0x10,0xc(%esp)
  101c6f:	00 
  101c70:	89 5c 24 08          	mov    %ebx,0x8(%esp)
  101c74:	89 7c 24 04          	mov    %edi,0x4(%esp)
  101c78:	89 34 24             	mov    %esi,(%esp)
  101c7b:	e8 c0 f9 ff ff       	call   101640 <readi>
  101c80:	83 f8 10             	cmp    $0x10,%eax
  101c83:	75 52                	jne    101cd7 <dirlink+0xb7>
      panic("dirlink read");
    if(de.inum == 0)
  101c85:	66 83 7d e4 00       	cmpw   $0x0,-0x1c(%ebp)
  101c8a:	75 d4                	jne    101c60 <dirlink+0x40>
      break;
  }

  strncpy(de.name, name, DIRSIZ);
  101c8c:	8b 45 0c             	mov    0xc(%ebp),%eax
  101c8f:	c7 44 24 08 0e 00 00 	movl   $0xe,0x8(%esp)
  101c96:	00 
  101c97:	89 44 24 04          	mov    %eax,0x4(%esp)
  101c9b:	8d 45 e6             	lea    -0x1a(%ebp),%eax
  101c9e:	89 04 24             	mov    %eax,(%esp)
  101ca1:	e8 0a 2b 00 00       	call   1047b0 <strncpy>
  de.inum = ino;
  101ca6:	0f b7 45 10          	movzwl 0x10(%ebp),%eax
  if(writei(dp, (char*)&de, off, sizeof(de)) != sizeof(de))
  101caa:	c7 44 24 0c 10 00 00 	movl   $0x10,0xc(%esp)
  101cb1:	00 
  101cb2:	89 5c 24 08          	mov    %ebx,0x8(%esp)
  101cb6:	89 7c 24 04          	mov    %edi,0x4(%esp)
    if(de.inum == 0)
      break;
  }

  strncpy(de.name, name, DIRSIZ);
  de.inum = ino;
  101cba:	66 89 45 e4          	mov    %ax,-0x1c(%ebp)
  if(writei(dp, (char*)&de, off, sizeof(de)) != sizeof(de))
  101cbe:	89 34 24             	mov    %esi,(%esp)
  101cc1:	e8 4a f8 ff ff       	call   101510 <writei>
    panic("dirlink");
  101cc6:	31 d2                	xor    %edx,%edx
      break;
  }

  strncpy(de.name, name, DIRSIZ);
  de.inum = ino;
  if(writei(dp, (char*)&de, off, sizeof(de)) != sizeof(de))
  101cc8:	83 f8 10             	cmp    $0x10,%eax
  101ccb:	75 2c                	jne    101cf9 <dirlink+0xd9>
    panic("dirlink");
  
  return 0;
}
  101ccd:	83 c4 2c             	add    $0x2c,%esp
  101cd0:	89 d0                	mov    %edx,%eax
  101cd2:	5b                   	pop    %ebx
  101cd3:	5e                   	pop    %esi
  101cd4:	5f                   	pop    %edi
  101cd5:	5d                   	pop    %ebp
  101cd6:	c3                   	ret    
  }

  // Look for an empty dirent.
  for(off = 0; off < dp->size; off += sizeof(de)){
    if(readi(dp, (char*)&de, off, sizeof(de)) != sizeof(de))
      panic("dirlink read");
  101cd7:	c7 04 24 34 68 10 00 	movl   $0x106834,(%esp)
  101cde:	e8 2d ec ff ff       	call   100910 <panic>
  struct dirent de;
  struct inode *ip;

  // Check that name is not present.
  if((ip = dirlookup(dp, name, 0)) != 0){
    iput(ip);
  101ce3:	89 04 24             	mov    %eax,(%esp)
  101ce6:	e8 f5 fd ff ff       	call   101ae0 <iput>
  101ceb:	ba ff ff ff ff       	mov    $0xffffffff,%edx
  101cf0:	eb db                	jmp    101ccd <dirlink+0xad>
    return -1;
  }

  // Look for an empty dirent.
  for(off = 0; off < dp->size; off += sizeof(de)){
  101cf2:	8d 7d e4             	lea    -0x1c(%ebp),%edi
  101cf5:	31 db                	xor    %ebx,%ebx
  101cf7:	eb 93                	jmp    101c8c <dirlink+0x6c>
  }

  strncpy(de.name, name, DIRSIZ);
  de.inum = ino;
  if(writei(dp, (char*)&de, off, sizeof(de)) != sizeof(de))
    panic("dirlink");
  101cf9:	c7 04 24 41 68 10 00 	movl   $0x106841,(%esp)
  101d00:	e8 0b ec ff ff       	call   100910 <panic>
  101d05:	8d 74 26 00          	lea    0x0(%esi),%esi
  101d09:	8d bc 27 00 00 00 00 	lea    0x0(%edi),%edi

00101d10 <iunlock>:
}

// Unlock the given inode.
void
iunlock(struct inode *ip)
{
  101d10:	55                   	push   %ebp
  101d11:	89 e5                	mov    %esp,%ebp
  101d13:	53                   	push   %ebx
  101d14:	83 ec 04             	sub    $0x4,%esp
  101d17:	8b 5d 08             	mov    0x8(%ebp),%ebx
  if(ip == 0 || !(ip->flags & I_BUSY) || ip->ref < 1)
  101d1a:	85 db                	test   %ebx,%ebx
  101d1c:	74 36                	je     101d54 <iunlock+0x44>
  101d1e:	f6 43 0c 01          	testb  $0x1,0xc(%ebx)
  101d22:	74 30                	je     101d54 <iunlock+0x44>
  101d24:	8b 53 08             	mov    0x8(%ebx),%edx
  101d27:	85 d2                	test   %edx,%edx
  101d29:	7e 29                	jle    101d54 <iunlock+0x44>
    panic("iunlock");

  acquire(&icache.lock);
  101d2b:	c7 04 24 80 9a 10 00 	movl   $0x109a80,(%esp)
  101d32:	e8 a9 28 00 00       	call   1045e0 <acquire>
  ip->flags &= ~I_BUSY;
  101d37:	83 63 0c fe          	andl   $0xfffffffe,0xc(%ebx)
  wakeup(ip);
  101d3b:	89 1c 24             	mov    %ebx,(%esp)
  101d3e:	e8 7d 16 00 00       	call   1033c0 <wakeup>
  release(&icache.lock);
  101d43:	c7 45 08 80 9a 10 00 	movl   $0x109a80,0x8(%ebp)
}
  101d4a:	83 c4 04             	add    $0x4,%esp
  101d4d:	5b                   	pop    %ebx
  101d4e:	5d                   	pop    %ebp
    panic("iunlock");

  acquire(&icache.lock);
  ip->flags &= ~I_BUSY;
  wakeup(ip);
  release(&icache.lock);
  101d4f:	e9 4c 28 00 00       	jmp    1045a0 <release>
// Unlock the given inode.
void
iunlock(struct inode *ip)
{
  if(ip == 0 || !(ip->flags & I_BUSY) || ip->ref < 1)
    panic("iunlock");
  101d54:	c7 04 24 49 68 10 00 	movl   $0x106849,(%esp)
  101d5b:	e8 b0 eb ff ff       	call   100910 <panic>

00101d60 <iunlockput>:
}

// Common idiom: unlock, then put.
void
iunlockput(struct inode *ip)
{
  101d60:	55                   	push   %ebp
  101d61:	89 e5                	mov    %esp,%ebp
  101d63:	53                   	push   %ebx
  101d64:	83 ec 04             	sub    $0x4,%esp
  101d67:	8b 5d 08             	mov    0x8(%ebp),%ebx
  iunlock(ip);
  101d6a:	89 1c 24             	mov    %ebx,(%esp)
  101d6d:	e8 9e ff ff ff       	call   101d10 <iunlock>
  iput(ip);
  101d72:	89 5d 08             	mov    %ebx,0x8(%ebp)
}
  101d75:	83 c4 04             	add    $0x4,%esp
  101d78:	5b                   	pop    %ebx
  101d79:	5d                   	pop    %ebp
// Common idiom: unlock, then put.
void
iunlockput(struct inode *ip)
{
  iunlock(ip);
  iput(ip);
  101d7a:	e9 61 fd ff ff       	jmp    101ae0 <iput>
  101d7f:	90                   	nop    

00101d80 <ilock>:
}

// Lock the given inode.
void
ilock(struct inode *ip)
{
  101d80:	55                   	push   %ebp
  101d81:	89 e5                	mov    %esp,%ebp
  101d83:	56                   	push   %esi
  101d84:	53                   	push   %ebx
  101d85:	83 ec 10             	sub    $0x10,%esp
  101d88:	8b 75 08             	mov    0x8(%ebp),%esi
  struct buf *bp;
  struct dinode *dip;

  if(ip == 0 || ip->ref < 1)
  101d8b:	85 f6                	test   %esi,%esi
  101d8d:	0f 84 dd 00 00 00    	je     101e70 <ilock+0xf0>
  101d93:	8b 4e 08             	mov    0x8(%esi),%ecx
  101d96:	85 c9                	test   %ecx,%ecx
  101d98:	0f 8e d2 00 00 00    	jle    101e70 <ilock+0xf0>
    panic("ilock");

  acquire(&icache.lock);
  101d9e:	c7 04 24 80 9a 10 00 	movl   $0x109a80,(%esp)
  101da5:	e8 36 28 00 00       	call   1045e0 <acquire>
  while(ip->flags & I_BUSY)
  101daa:	8b 46 0c             	mov    0xc(%esi),%eax
  101dad:	a8 01                	test   $0x1,%al
  101daf:	74 17                	je     101dc8 <ilock+0x48>
    sleep(ip, &icache.lock);
  101db1:	c7 44 24 04 80 9a 10 	movl   $0x109a80,0x4(%esp)
  101db8:	00 
  101db9:	89 34 24             	mov    %esi,(%esp)
  101dbc:	e8 5f 1c 00 00       	call   103a20 <sleep>

  if(ip == 0 || ip->ref < 1)
    panic("ilock");

  acquire(&icache.lock);
  while(ip->flags & I_BUSY)
  101dc1:	8b 46 0c             	mov    0xc(%esi),%eax
  101dc4:	a8 01                	test   $0x1,%al
  101dc6:	75 e9                	jne    101db1 <ilock+0x31>
    sleep(ip, &icache.lock);
  ip->flags |= I_BUSY;
  101dc8:	83 c8 01             	or     $0x1,%eax
  101dcb:	89 46 0c             	mov    %eax,0xc(%esi)
  release(&icache.lock);
  101dce:	c7 04 24 80 9a 10 00 	movl   $0x109a80,(%esp)
  101dd5:	e8 c6 27 00 00       	call   1045a0 <release>

  if(!(ip->flags & I_VALID)){
  101dda:	f6 46 0c 02          	testb  $0x2,0xc(%esi)
  101dde:	74 07                	je     101de7 <ilock+0x67>
    brelse(bp);
    ip->flags |= I_VALID;
    if(ip->type == 0)
      panic("ilock: no type");
  }
}
  101de0:	83 c4 10             	add    $0x10,%esp
  101de3:	5b                   	pop    %ebx
  101de4:	5e                   	pop    %esi
  101de5:	5d                   	pop    %ebp
  101de6:	c3                   	ret    
    sleep(ip, &icache.lock);
  ip->flags |= I_BUSY;
  release(&icache.lock);

  if(!(ip->flags & I_VALID)){
    bp = bread(ip->dev, IBLOCK(ip->inum));
  101de7:	8b 46 04             	mov    0x4(%esi),%eax
  101dea:	c1 e8 03             	shr    $0x3,%eax
  101ded:	83 c0 02             	add    $0x2,%eax
  101df0:	89 44 24 04          	mov    %eax,0x4(%esp)
  101df4:	8b 06                	mov    (%esi),%eax
  101df6:	89 04 24             	mov    %eax,(%esp)
  101df9:	e8 22 e3 ff ff       	call   100120 <bread>
  101dfe:	89 c3                	mov    %eax,%ebx
    dip = (struct dinode*)bp->data + ip->inum%IPB;
  101e00:	8b 46 04             	mov    0x4(%esi),%eax
  101e03:	83 e0 07             	and    $0x7,%eax
  101e06:	c1 e0 06             	shl    $0x6,%eax
  101e09:	8d 44 03 18          	lea    0x18(%ebx,%eax,1),%eax
    ip->type = dip->type;
  101e0d:	0f b7 10             	movzwl (%eax),%edx
  101e10:	66 89 56 10          	mov    %dx,0x10(%esi)
    ip->major = dip->major;
  101e14:	0f b7 50 02          	movzwl 0x2(%eax),%edx
  101e18:	66 89 56 12          	mov    %dx,0x12(%esi)
    ip->minor = dip->minor;
  101e1c:	0f b7 50 04          	movzwl 0x4(%eax),%edx
  101e20:	66 89 56 14          	mov    %dx,0x14(%esi)
    ip->nlink = dip->nlink;
  101e24:	0f b7 50 06          	movzwl 0x6(%eax),%edx
  101e28:	66 89 56 16          	mov    %dx,0x16(%esi)
    ip->size = dip->size;
  101e2c:	8b 50 08             	mov    0x8(%eax),%edx
    memmove(ip->addrs, dip->addrs, sizeof(ip->addrs));
  101e2f:	83 c0 0c             	add    $0xc,%eax
    dip = (struct dinode*)bp->data + ip->inum%IPB;
    ip->type = dip->type;
    ip->major = dip->major;
    ip->minor = dip->minor;
    ip->nlink = dip->nlink;
    ip->size = dip->size;
  101e32:	89 56 18             	mov    %edx,0x18(%esi)
    memmove(ip->addrs, dip->addrs, sizeof(ip->addrs));
  101e35:	89 44 24 04          	mov    %eax,0x4(%esp)
  101e39:	8d 46 1c             	lea    0x1c(%esi),%eax
  101e3c:	c7 44 24 08 34 00 00 	movl   $0x34,0x8(%esp)
  101e43:	00 
  101e44:	89 04 24             	mov    %eax,(%esp)
  101e47:	e8 a4 28 00 00       	call   1046f0 <memmove>
    brelse(bp);
  101e4c:	89 1c 24             	mov    %ebx,(%esp)
  101e4f:	e8 1c e2 ff ff       	call   100070 <brelse>
    ip->flags |= I_VALID;
  101e54:	83 4e 0c 02          	orl    $0x2,0xc(%esi)
    if(ip->type == 0)
  101e58:	66 83 7e 10 00       	cmpw   $0x0,0x10(%esi)
  101e5d:	75 81                	jne    101de0 <ilock+0x60>
      panic("ilock: no type");
  101e5f:	c7 04 24 57 68 10 00 	movl   $0x106857,(%esp)
  101e66:	e8 a5 ea ff ff       	call   100910 <panic>
  101e6b:	90                   	nop    
  101e6c:	8d 74 26 00          	lea    0x0(%esi),%esi
{
  struct buf *bp;
  struct dinode *dip;

  if(ip == 0 || ip->ref < 1)
    panic("ilock");
  101e70:	c7 04 24 51 68 10 00 	movl   $0x106851,(%esp)
  101e77:	e8 94 ea ff ff       	call   100910 <panic>
  101e7c:	8d 74 26 00          	lea    0x0(%esi),%esi

00101e80 <_namei>:
// Look up and return the inode for a path name.
// If parent != 0, return the inode for the parent and copy the final
// path element into name, which must have room for DIRSIZ bytes.
static struct inode*
_namei(char *path, int parent, char *name)
{
  101e80:	55                   	push   %ebp
  101e81:	89 e5                	mov    %esp,%ebp
  101e83:	57                   	push   %edi
  101e84:	56                   	push   %esi
  101e85:	89 c6                	mov    %eax,%esi
  101e87:	53                   	push   %ebx
  101e88:	83 ec 1c             	sub    $0x1c,%esp
  101e8b:	89 55 ec             	mov    %edx,-0x14(%ebp)
  101e8e:	89 4d e8             	mov    %ecx,-0x18(%ebp)
  struct inode *ip, *next;

  if(*path == '/')
  101e91:	80 38 2f             	cmpb   $0x2f,(%eax)
  101e94:	0f 84 12 01 00 00    	je     101fac <_namei+0x12c>
    ip = iget(ROOTDEV, 1);
  else
    ip = idup(cp->cwd);
  101e9a:	e8 a1 16 00 00       	call   103540 <curproc>
  101e9f:	8b 40 60             	mov    0x60(%eax),%eax
  101ea2:	89 04 24             	mov    %eax,(%esp)
  101ea5:	e8 a6 f8 ff ff       	call   101750 <idup>
  101eaa:	89 45 f0             	mov    %eax,-0x10(%ebp)
  101ead:	eb 04                	jmp    101eb3 <_namei+0x33>
  101eaf:	90                   	nop    
{
  char *s;
  int len;

  while(*path == '/')
    path++;
  101eb0:	83 c6 01             	add    $0x1,%esi
skipelem(char *path, char *name)
{
  char *s;
  int len;

  while(*path == '/')
  101eb3:	0f b6 06             	movzbl (%esi),%eax
  101eb6:	3c 2f                	cmp    $0x2f,%al
  101eb8:	74 f6                	je     101eb0 <_namei+0x30>
    path++;
  if(*path == 0)
  101eba:	84 c0                	test   %al,%al
  101ebc:	0f 84 bb 00 00 00    	je     101f7d <_namei+0xfd>
  101ec2:	89 f3                	mov    %esi,%ebx
    return 0;
  s = path;
  while(*path != '/' && *path != 0)
    path++;
  101ec4:	83 c3 01             	add    $0x1,%ebx
  while(*path == '/')
    path++;
  if(*path == 0)
    return 0;
  s = path;
  while(*path != '/' && *path != 0)
  101ec7:	0f b6 03             	movzbl (%ebx),%eax
  101eca:	3c 2f                	cmp    $0x2f,%al
  101ecc:	74 04                	je     101ed2 <_namei+0x52>
  101ece:	84 c0                	test   %al,%al
  101ed0:	75 f2                	jne    101ec4 <_namei+0x44>
    path++;
  len = path - s;
  101ed2:	89 df                	mov    %ebx,%edi
  101ed4:	29 f7                	sub    %esi,%edi
  if(len >= DIRSIZ)
  101ed6:	83 ff 0d             	cmp    $0xd,%edi
  101ed9:	0f 8e 7f 00 00 00    	jle    101f5e <_namei+0xde>
    memmove(name, s, DIRSIZ);
  101edf:	c7 44 24 08 0e 00 00 	movl   $0xe,0x8(%esp)
  101ee6:	00 
  101ee7:	89 74 24 04          	mov    %esi,0x4(%esp)
  101eeb:	8b 45 e8             	mov    -0x18(%ebp),%eax
  101eee:	89 04 24             	mov    %eax,(%esp)
  101ef1:	e8 fa 27 00 00       	call   1046f0 <memmove>
  101ef6:	eb 03                	jmp    101efb <_namei+0x7b>
  else {
    memmove(name, s, len);
    name[len] = 0;
  }
  while(*path == '/')
    path++;
  101ef8:	83 c3 01             	add    $0x1,%ebx
    memmove(name, s, DIRSIZ);
  else {
    memmove(name, s, len);
    name[len] = 0;
  }
  while(*path == '/')
  101efb:	80 3b 2f             	cmpb   $0x2f,(%ebx)
  101efe:	74 f8                	je     101ef8 <_namei+0x78>
  if(*path == '/')
    ip = iget(ROOTDEV, 1);
  else
    ip = idup(cp->cwd);

  while((path = skipelem(path, name)) != 0){
  101f00:	85 db                	test   %ebx,%ebx
  101f02:	74 79                	je     101f7d <_namei+0xfd>
    ilock(ip);
  101f04:	8b 45 f0             	mov    -0x10(%ebp),%eax
  101f07:	89 04 24             	mov    %eax,(%esp)
  101f0a:	e8 71 fe ff ff       	call   101d80 <ilock>
    if(ip->type != T_DIR){
  101f0f:	8b 45 f0             	mov    -0x10(%ebp),%eax
  101f12:	66 83 78 10 01       	cmpw   $0x1,0x10(%eax)
  101f17:	75 79                	jne    101f92 <_namei+0x112>
      iunlockput(ip);
      return 0;
    }
    if(parent && *path == '\0'){
  101f19:	8b 75 ec             	mov    -0x14(%ebp),%esi
  101f1c:	85 f6                	test   %esi,%esi
  101f1e:	74 09                	je     101f29 <_namei+0xa9>
  101f20:	80 3b 00             	cmpb   $0x0,(%ebx)
  101f23:	0f 84 9a 00 00 00    	je     101fc3 <_namei+0x143>
      // Stop one level early.
      iunlock(ip);
      return ip;
    }
    if((next = dirlookup(ip, name, 0)) == 0){
  101f29:	c7 44 24 08 00 00 00 	movl   $0x0,0x8(%esp)
  101f30:	00 
  101f31:	8b 45 e8             	mov    -0x18(%ebp),%eax
  101f34:	89 44 24 04          	mov    %eax,0x4(%esp)
  101f38:	8b 45 f0             	mov    -0x10(%ebp),%eax
  101f3b:	89 04 24             	mov    %eax,(%esp)
  101f3e:	e8 1d f9 ff ff       	call   101860 <dirlookup>
  101f43:	85 c0                	test   %eax,%eax
  101f45:	89 c6                	mov    %eax,%esi
  101f47:	74 46                	je     101f8f <_namei+0x10f>
      iunlockput(ip);
      return 0;
    }
    iunlockput(ip);
  101f49:	8b 45 f0             	mov    -0x10(%ebp),%eax
  101f4c:	89 04 24             	mov    %eax,(%esp)
  101f4f:	e8 0c fe ff ff       	call   101d60 <iunlockput>
  101f54:	89 75 f0             	mov    %esi,-0x10(%ebp)
  101f57:	89 de                	mov    %ebx,%esi
  101f59:	e9 55 ff ff ff       	jmp    101eb3 <_namei+0x33>
    path++;
  len = path - s;
  if(len >= DIRSIZ)
    memmove(name, s, DIRSIZ);
  else {
    memmove(name, s, len);
  101f5e:	89 7c 24 08          	mov    %edi,0x8(%esp)
  101f62:	89 74 24 04          	mov    %esi,0x4(%esp)
  101f66:	8b 45 e8             	mov    -0x18(%ebp),%eax
  101f69:	89 04 24             	mov    %eax,(%esp)
  101f6c:	e8 7f 27 00 00       	call   1046f0 <memmove>
    name[len] = 0;
  101f71:	8b 45 e8             	mov    -0x18(%ebp),%eax
  101f74:	c6 04 38 00          	movb   $0x0,(%eax,%edi,1)
  101f78:	e9 7e ff ff ff       	jmp    101efb <_namei+0x7b>
      return 0;
    }
    iunlockput(ip);
    ip = next;
  }
  if(parent){
  101f7d:	8b 5d ec             	mov    -0x14(%ebp),%ebx
  101f80:	85 db                	test   %ebx,%ebx
  101f82:	75 55                	jne    101fd9 <_namei+0x159>
    iput(ip);
    return 0;
  }
  return ip;
}
  101f84:	8b 45 f0             	mov    -0x10(%ebp),%eax
  101f87:	83 c4 1c             	add    $0x1c,%esp
  101f8a:	5b                   	pop    %ebx
  101f8b:	5e                   	pop    %esi
  101f8c:	5f                   	pop    %edi
  101f8d:	5d                   	pop    %ebp
  101f8e:	c3                   	ret    
      // Stop one level early.
      iunlock(ip);
      return ip;
    }
    if((next = dirlookup(ip, name, 0)) == 0){
      iunlockput(ip);
  101f8f:	8b 45 f0             	mov    -0x10(%ebp),%eax
  101f92:	89 04 24             	mov    %eax,(%esp)
  101f95:	e8 c6 fd ff ff       	call   101d60 <iunlockput>
  101f9a:	c7 45 f0 00 00 00 00 	movl   $0x0,-0x10(%ebp)
  if(parent){
    iput(ip);
    return 0;
  }
  return ip;
}
  101fa1:	8b 45 f0             	mov    -0x10(%ebp),%eax
  101fa4:	83 c4 1c             	add    $0x1c,%esp
  101fa7:	5b                   	pop    %ebx
  101fa8:	5e                   	pop    %esi
  101fa9:	5f                   	pop    %edi
  101faa:	5d                   	pop    %ebp
  101fab:	c3                   	ret    
_namei(char *path, int parent, char *name)
{
  struct inode *ip, *next;

  if(*path == '/')
    ip = iget(ROOTDEV, 1);
  101fac:	ba 01 00 00 00       	mov    $0x1,%edx
  101fb1:	b8 01 00 00 00       	mov    $0x1,%eax
  101fb6:	e8 c5 f7 ff ff       	call   101780 <iget>
  101fbb:	89 45 f0             	mov    %eax,-0x10(%ebp)
  101fbe:	e9 f0 fe ff ff       	jmp    101eb3 <_namei+0x33>
      iunlockput(ip);
      return 0;
    }
    if(parent && *path == '\0'){
      // Stop one level early.
      iunlock(ip);
  101fc3:	8b 45 f0             	mov    -0x10(%ebp),%eax
  101fc6:	89 04 24             	mov    %eax,(%esp)
  101fc9:	e8 42 fd ff ff       	call   101d10 <iunlock>
  if(parent){
    iput(ip);
    return 0;
  }
  return ip;
}
  101fce:	8b 45 f0             	mov    -0x10(%ebp),%eax
  101fd1:	83 c4 1c             	add    $0x1c,%esp
  101fd4:	5b                   	pop    %ebx
  101fd5:	5e                   	pop    %esi
  101fd6:	5f                   	pop    %edi
  101fd7:	5d                   	pop    %ebp
  101fd8:	c3                   	ret    
    }
    iunlockput(ip);
    ip = next;
  }
  if(parent){
    iput(ip);
  101fd9:	8b 45 f0             	mov    -0x10(%ebp),%eax
  101fdc:	89 04 24             	mov    %eax,(%esp)
  101fdf:	e8 fc fa ff ff       	call   101ae0 <iput>
  101fe4:	c7 45 f0 00 00 00 00 	movl   $0x0,-0x10(%ebp)
  101feb:	eb 97                	jmp    101f84 <_namei+0x104>
  101fed:	8d 76 00             	lea    0x0(%esi),%esi

00101ff0 <nameiparent>:
  return _namei(path, 0, name);
}

struct inode*
nameiparent(char *path, char *name)
{
  101ff0:	55                   	push   %ebp
  return _namei(path, 1, name);
  101ff1:	ba 01 00 00 00       	mov    $0x1,%edx
  return _namei(path, 0, name);
}

struct inode*
nameiparent(char *path, char *name)
{
  101ff6:	89 e5                	mov    %esp,%ebp
  101ff8:	8b 45 08             	mov    0x8(%ebp),%eax
  101ffb:	8b 4d 0c             	mov    0xc(%ebp),%ecx
  return _namei(path, 1, name);
}
  101ffe:	5d                   	pop    %ebp
}

struct inode*
nameiparent(char *path, char *name)
{
  return _namei(path, 1, name);
  101fff:	e9 7c fe ff ff       	jmp    101e80 <_namei>
  102004:	8d b6 00 00 00 00    	lea    0x0(%esi),%esi
  10200a:	8d bf 00 00 00 00    	lea    0x0(%edi),%edi

00102010 <namei>:
  return ip;
}

struct inode*
namei(char *path)
{
  102010:	55                   	push   %ebp
  char name[DIRSIZ];
  return _namei(path, 0, name);
  102011:	31 d2                	xor    %edx,%edx
  return ip;
}

struct inode*
namei(char *path)
{
  102013:	89 e5                	mov    %esp,%ebp
  102015:	83 ec 18             	sub    $0x18,%esp
  char name[DIRSIZ];
  return _namei(path, 0, name);
  102018:	8b 45 08             	mov    0x8(%ebp),%eax
  10201b:	8d 4d f2             	lea    -0xe(%ebp),%ecx
  10201e:	e8 5d fe ff ff       	call   101e80 <_namei>
}
  102023:	c9                   	leave  
  102024:	c3                   	ret    
  102025:	8d 74 26 00          	lea    0x0(%esi),%esi
  102029:	8d bc 27 00 00 00 00 	lea    0x0(%edi),%edi

00102030 <iinit>:
  struct inode inode[NINODE];
} icache;

void
iinit(void)
{
  102030:	55                   	push   %ebp
  102031:	89 e5                	mov    %esp,%ebp
  102033:	83 ec 08             	sub    $0x8,%esp
  initlock(&icache.lock, "icache.lock");
  102036:	c7 44 24 04 66 68 10 	movl   $0x106866,0x4(%esp)
  10203d:	00 
  10203e:	c7 04 24 80 9a 10 00 	movl   $0x109a80,(%esp)
  102045:	e8 d6 23 00 00       	call   104420 <initlock>
}
  10204a:	c9                   	leave  
  10204b:	c3                   	ret    
  10204c:	90                   	nop    
  10204d:	90                   	nop    
  10204e:	90                   	nop    
  10204f:	90                   	nop    

00102050 <ide_wait_ready>:
static void ide_start_request();

// Wait for IDE disk to become ready.
static int
ide_wait_ready(int check_error)
{
  102050:	55                   	push   %ebp
  102051:	89 c1                	mov    %eax,%ecx
  102053:	89 e5                	mov    %esp,%ebp
static inline uchar
inb(ushort port)
{
  uchar data;

  asm volatile("in %1,%0" : "=a" (data) : "d" (port));
  102055:	ba f7 01 00 00       	mov    $0x1f7,%edx
  10205a:	ec                   	in     (%dx),%al
  return data;
  10205b:	0f b6 c0             	movzbl %al,%eax
  int r;

  while(((r = inb(0x1f7)) & IDE_BSY) || !(r & IDE_DRDY))
  10205e:	84 c0                	test   %al,%al
  102060:	78 f3                	js     102055 <ide_wait_ready+0x5>
  102062:	a8 40                	test   $0x40,%al
  102064:	74 ef                	je     102055 <ide_wait_ready+0x5>
    ;
  if(check_error && (r & (IDE_DF|IDE_ERR)) != 0)
  102066:	85 c9                	test   %ecx,%ecx
  102068:	74 09                	je     102073 <ide_wait_ready+0x23>
  10206a:	a8 21                	test   $0x21,%al
  10206c:	ba ff ff ff ff       	mov    $0xffffffff,%edx
  102071:	75 02                	jne    102075 <ide_wait_ready+0x25>
  102073:	31 d2                	xor    %edx,%edx
    return -1;
  return 0;
}
  102075:	5d                   	pop    %ebp
  102076:	89 d0                	mov    %edx,%eax
  102078:	c3                   	ret    
  102079:	8d b4 26 00 00 00 00 	lea    0x0(%esi),%esi

00102080 <ide_start_request>:
}

// Start the request for b.  Caller must hold ide_lock.
static void
ide_start_request(struct buf *b)
{
  102080:	55                   	push   %ebp
  102081:	89 e5                	mov    %esp,%ebp
  102083:	56                   	push   %esi
  102084:	89 c6                	mov    %eax,%esi
  102086:	53                   	push   %ebx
  102087:	83 ec 10             	sub    $0x10,%esp
  if(b == 0)
  10208a:	85 c0                	test   %eax,%eax
  10208c:	0f 84 81 00 00 00    	je     102113 <ide_start_request+0x93>
    panic("ide_start_request");

  ide_wait_ready(0);
  102092:	31 c0                	xor    %eax,%eax
  102094:	e8 b7 ff ff ff       	call   102050 <ide_wait_ready>
}

static inline void
outb(ushort port, uchar data)
{
  asm volatile("out %0,%1" : : "a" (data), "d" (port));
  102099:	31 c0                	xor    %eax,%eax
  10209b:	ba f6 03 00 00       	mov    $0x3f6,%edx
  1020a0:	ee                   	out    %al,(%dx)
  outb(0x3f6, 0);  // generate interrupt
  outb(0x1f2, 1);  // number of sectors
  outb(0x1f3, b->sector & 0xff);
  1020a1:	b8 01 00 00 00       	mov    $0x1,%eax
  1020a6:	ba f2 01 00 00       	mov    $0x1f2,%edx
  1020ab:	ee                   	out    %al,(%dx)
  1020ac:	8b 46 08             	mov    0x8(%esi),%eax
  1020af:	b2 f3                	mov    $0xf3,%dl
  1020b1:	ee                   	out    %al,(%dx)
  outb(0x1f4, (b->sector >> 8) & 0xff);
  outb(0x1f5, (b->sector >> 16) & 0xff);
  outb(0x1f6, 0xe0 | ((b->dev&1)<<4) | ((b->sector>>24)&0x0f));
  if(b->flags & B_DIRTY){
  1020b2:	c1 e8 08             	shr    $0x8,%eax
  1020b5:	b2 f4                	mov    $0xf4,%dl
  1020b7:	ee                   	out    %al,(%dx)
  1020b8:	c1 e8 08             	shr    $0x8,%eax
  1020bb:	b2 f5                	mov    $0xf5,%dl
  1020bd:	ee                   	out    %al,(%dx)
  1020be:	0f b6 4e 04          	movzbl 0x4(%esi),%ecx
  1020c2:	c1 e8 08             	shr    $0x8,%eax
  1020c5:	bb f6 01 00 00       	mov    $0x1f6,%ebx
  1020ca:	83 e0 0f             	and    $0xf,%eax
  1020cd:	89 da                	mov    %ebx,%edx
  1020cf:	83 e1 01             	and    $0x1,%ecx
  1020d2:	c1 e1 04             	shl    $0x4,%ecx
  1020d5:	09 c1                	or     %eax,%ecx
  1020d7:	83 c9 e0             	or     $0xffffffe0,%ecx
  1020da:	89 c8                	mov    %ecx,%eax
  1020dc:	ee                   	out    %al,(%dx)
  1020dd:	f6 06 04             	testb  $0x4,(%esi)
  1020e0:	75 12                	jne    1020f4 <ide_start_request+0x74>
  1020e2:	b8 20 00 00 00       	mov    $0x20,%eax
  1020e7:	ba f7 01 00 00       	mov    $0x1f7,%edx
  1020ec:	ee                   	out    %al,(%dx)
    outb(0x1f7, IDE_CMD_WRITE);
    outsl(0x1f0, b->data, 512/4);
  } else {
    outb(0x1f7, IDE_CMD_READ);
  }
}
  1020ed:	83 c4 10             	add    $0x10,%esp
  1020f0:	5b                   	pop    %ebx
  1020f1:	5e                   	pop    %esi
  1020f2:	5d                   	pop    %ebp
  1020f3:	c3                   	ret    
  1020f4:	b8 30 00 00 00       	mov    $0x30,%eax
  1020f9:	b2 f7                	mov    $0xf7,%dl
  1020fb:	ee                   	out    %al,(%dx)
}

static inline void
outsl(int port, const void *addr, int cnt)
{
  asm volatile("cld\n\trepne\n\toutsl"    :
  1020fc:	ba f0 01 00 00       	mov    $0x1f0,%edx
}

static inline void
outb(ushort port, uchar data)
{
  asm volatile("out %0,%1" : : "a" (data), "d" (port));
  102101:	83 c6 18             	add    $0x18,%esi
}

static inline void
outsl(int port, const void *addr, int cnt)
{
  asm volatile("cld\n\trepne\n\toutsl"    :
  102104:	b9 80 00 00 00       	mov    $0x80,%ecx
  102109:	fc                   	cld    
  10210a:	f2 6f                	repnz outsl %ds:(%esi),(%dx)
  10210c:	83 c4 10             	add    $0x10,%esp
  10210f:	5b                   	pop    %ebx
  102110:	5e                   	pop    %esi
  102111:	5d                   	pop    %ebp
  102112:	c3                   	ret    
// Start the request for b.  Caller must hold ide_lock.
static void
ide_start_request(struct buf *b)
{
  if(b == 0)
    panic("ide_start_request");
  102113:	c7 04 24 72 68 10 00 	movl   $0x106872,(%esp)
  10211a:	e8 f1 e7 ff ff       	call   100910 <panic>
  10211f:	90                   	nop    

00102120 <ide_rw>:
// Sync buf with disk. 
// If B_DIRTY is set, write buf to disk, clear B_DIRTY, set B_VALID.
// Else if B_VALID is not set, read buf from disk, set B_VALID.
void
ide_rw(struct buf *b)
{
  102120:	55                   	push   %ebp
  102121:	89 e5                	mov    %esp,%ebp
  102123:	53                   	push   %ebx
  102124:	83 ec 14             	sub    $0x14,%esp
  102127:	8b 5d 08             	mov    0x8(%ebp),%ebx
  struct buf **pp;

  if(!(b->flags & B_BUSY))
  10212a:	8b 03                	mov    (%ebx),%eax
  10212c:	a8 01                	test   $0x1,%al
  10212e:	0f 84 90 00 00 00    	je     1021c4 <ide_rw+0xa4>
    panic("ide_rw: buf not busy");
  if((b->flags & (B_VALID|B_DIRTY)) == B_VALID)
  102134:	83 e0 06             	and    $0x6,%eax
  102137:	83 f8 02             	cmp    $0x2,%eax
  10213a:	0f 84 90 00 00 00    	je     1021d0 <ide_rw+0xb0>
    panic("ide_rw: nothing to do");
  if(b->dev != 0 && !disk_1_present)
  102140:	8b 53 04             	mov    0x4(%ebx),%edx
  102143:	85 d2                	test   %edx,%edx
  102145:	74 0d                	je     102154 <ide_rw+0x34>
  102147:	a1 38 78 10 00       	mov    0x107838,%eax
  10214c:	85 c0                	test   %eax,%eax
  10214e:	0f 84 88 00 00 00    	je     1021dc <ide_rw+0xbc>
    panic("ide disk 1 not present");

  acquire(&ide_lock);
  102154:	c7 04 24 00 78 10 00 	movl   $0x107800,(%esp)
  10215b:	e8 80 24 00 00       	call   1045e0 <acquire>

  // Append b to ide_queue.
  b->qnext = 0;
  for(pp=&ide_queue; *pp; pp=&(*pp)->qnext)
  102160:	a1 34 78 10 00       	mov    0x107834,%eax
  102165:	ba 34 78 10 00       	mov    $0x107834,%edx
    panic("ide disk 1 not present");

  acquire(&ide_lock);

  // Append b to ide_queue.
  b->qnext = 0;
  10216a:	c7 43 14 00 00 00 00 	movl   $0x0,0x14(%ebx)
  for(pp=&ide_queue; *pp; pp=&(*pp)->qnext)
  102171:	85 c0                	test   %eax,%eax
  102173:	74 0a                	je     10217f <ide_rw+0x5f>
  102175:	8d 50 14             	lea    0x14(%eax),%edx
  102178:	8b 40 14             	mov    0x14(%eax),%eax
  10217b:	85 c0                	test   %eax,%eax
  10217d:	75 f6                	jne    102175 <ide_rw+0x55>
    ;
  *pp = b;
  10217f:	89 1a                	mov    %ebx,(%edx)
  
  // Start disk if necessary.
  if(ide_queue == b)
  102181:	39 1d 34 78 10 00    	cmp    %ebx,0x107834
  102187:	75 17                	jne    1021a0 <ide_rw+0x80>
  102189:	eb 30                	jmp    1021bb <ide_rw+0x9b>
  10218b:	90                   	nop    
  10218c:	8d 74 26 00          	lea    0x0(%esi),%esi
    ide_start_request(b);
  
  // Wait for request to finish.
  // Assuming will not sleep too long: ignore cp->killed.
  while((b->flags & (B_VALID|B_DIRTY)) != B_VALID)
    sleep(b, &ide_lock);
  102190:	c7 44 24 04 00 78 10 	movl   $0x107800,0x4(%esp)
  102197:	00 
  102198:	89 1c 24             	mov    %ebx,(%esp)
  10219b:	e8 80 18 00 00       	call   103a20 <sleep>
  if(ide_queue == b)
    ide_start_request(b);
  
  // Wait for request to finish.
  // Assuming will not sleep too long: ignore cp->killed.
  while((b->flags & (B_VALID|B_DIRTY)) != B_VALID)
  1021a0:	8b 03                	mov    (%ebx),%eax
  1021a2:	83 e0 06             	and    $0x6,%eax
  1021a5:	83 f8 02             	cmp    $0x2,%eax
  1021a8:	75 e6                	jne    102190 <ide_rw+0x70>
    sleep(b, &ide_lock);

  release(&ide_lock);
  1021aa:	c7 45 08 00 78 10 00 	movl   $0x107800,0x8(%ebp)
}
  1021b1:	83 c4 14             	add    $0x14,%esp
  1021b4:	5b                   	pop    %ebx
  1021b5:	5d                   	pop    %ebp
  // Wait for request to finish.
  // Assuming will not sleep too long: ignore cp->killed.
  while((b->flags & (B_VALID|B_DIRTY)) != B_VALID)
    sleep(b, &ide_lock);

  release(&ide_lock);
  1021b6:	e9 e5 23 00 00       	jmp    1045a0 <release>
    ;
  *pp = b;
  
  // Start disk if necessary.
  if(ide_queue == b)
    ide_start_request(b);
  1021bb:	89 d8                	mov    %ebx,%eax
  1021bd:	e8 be fe ff ff       	call   102080 <ide_start_request>
  1021c2:	eb dc                	jmp    1021a0 <ide_rw+0x80>
ide_rw(struct buf *b)
{
  struct buf **pp;

  if(!(b->flags & B_BUSY))
    panic("ide_rw: buf not busy");
  1021c4:	c7 04 24 84 68 10 00 	movl   $0x106884,(%esp)
  1021cb:	e8 40 e7 ff ff       	call   100910 <panic>
  if((b->flags & (B_VALID|B_DIRTY)) == B_VALID)
    panic("ide_rw: nothing to do");
  1021d0:	c7 04 24 99 68 10 00 	movl   $0x106899,(%esp)
  1021d7:	e8 34 e7 ff ff       	call   100910 <panic>
  if(b->dev != 0 && !disk_1_present)
    panic("ide disk 1 not present");
  1021dc:	c7 04 24 af 68 10 00 	movl   $0x1068af,(%esp)
  1021e3:	e8 28 e7 ff ff       	call   100910 <panic>
  1021e8:	90                   	nop    
  1021e9:	8d b4 26 00 00 00 00 	lea    0x0(%esi),%esi

001021f0 <ide_intr>:
}

// Interrupt handler.
void
ide_intr(void)
{
  1021f0:	55                   	push   %ebp
  1021f1:	89 e5                	mov    %esp,%ebp
  1021f3:	57                   	push   %edi
  1021f4:	53                   	push   %ebx
  1021f5:	83 ec 10             	sub    $0x10,%esp
  struct buf *b;

  acquire(&ide_lock);
  1021f8:	c7 04 24 00 78 10 00 	movl   $0x107800,(%esp)
  1021ff:	e8 dc 23 00 00       	call   1045e0 <acquire>
  if((b = ide_queue) == 0){
  102204:	8b 1d 34 78 10 00    	mov    0x107834,%ebx
  10220a:	85 db                	test   %ebx,%ebx
  10220c:	74 28                	je     102236 <ide_intr+0x46>
    release(&ide_lock);
    return;
  }

  // Read data if needed.
  if(!(b->flags & B_DIRTY) && ide_wait_ready(1) >= 0)
  10220e:	f6 03 04             	testb  $0x4,(%ebx)
  102211:	74 3d                	je     102250 <ide_intr+0x60>
    insl(0x1f0, b->data, 512/4);
  
  // Wake process waiting for this buf.
  b->flags |= B_VALID;
  b->flags &= ~B_DIRTY;
  102213:	8b 03                	mov    (%ebx),%eax
  102215:	83 c8 02             	or     $0x2,%eax
  102218:	83 e0 fb             	and    $0xfffffffb,%eax
  10221b:	89 03                	mov    %eax,(%ebx)
  wakeup(b);
  10221d:	89 1c 24             	mov    %ebx,(%esp)
  102220:	e8 9b 11 00 00       	call   1033c0 <wakeup>
  
  // Start disk on next buf in queue.
  if((ide_queue = b->qnext) != 0)
  102225:	8b 43 14             	mov    0x14(%ebx),%eax
  102228:	85 c0                	test   %eax,%eax
  10222a:	a3 34 78 10 00       	mov    %eax,0x107834
  10222f:	74 05                	je     102236 <ide_intr+0x46>
    ide_start_request(ide_queue);
  102231:	e8 4a fe ff ff       	call   102080 <ide_start_request>

  release(&ide_lock);
  102236:	c7 04 24 00 78 10 00 	movl   $0x107800,(%esp)
  10223d:	e8 5e 23 00 00       	call   1045a0 <release>
}
  102242:	83 c4 10             	add    $0x10,%esp
  102245:	5b                   	pop    %ebx
  102246:	5f                   	pop    %edi
  102247:	5d                   	pop    %ebp
  102248:	c3                   	ret    
  102249:	8d b4 26 00 00 00 00 	lea    0x0(%esi),%esi
    release(&ide_lock);
    return;
  }

  // Read data if needed.
  if(!(b->flags & B_DIRTY) && ide_wait_ready(1) >= 0)
  102250:	b8 01 00 00 00       	mov    $0x1,%eax
  102255:	e8 f6 fd ff ff       	call   102050 <ide_wait_ready>
  10225a:	85 c0                	test   %eax,%eax
  10225c:	78 b5                	js     102213 <ide_intr+0x23>
  10225e:	8d 7b 18             	lea    0x18(%ebx),%edi
}

static inline void
insl(int port, void *addr, int cnt)
{
  asm volatile("cld\n\trepne\n\tinsl"     :
  102261:	ba f0 01 00 00       	mov    $0x1f0,%edx
  102266:	b9 80 00 00 00       	mov    $0x80,%ecx
  10226b:	fc                   	cld    
  10226c:	f2 6d                	repnz insl (%dx),%es:(%edi)
  10226e:	eb a3                	jmp    102213 <ide_intr+0x23>

00102270 <ide_init>:
  return 0;
}

void
ide_init(void)
{
  102270:	55                   	push   %ebp
  102271:	89 e5                	mov    %esp,%ebp
  102273:	83 ec 08             	sub    $0x8,%esp
  int i;

  initlock(&ide_lock, "ide");
  102276:	c7 44 24 04 c6 68 10 	movl   $0x1068c6,0x4(%esp)
  10227d:	00 
  10227e:	c7 04 24 00 78 10 00 	movl   $0x107800,(%esp)
  102285:	e8 96 21 00 00       	call   104420 <initlock>
  pic_enable(IRQ_IDE);
  10228a:	c7 04 24 0e 00 00 00 	movl   $0xe,(%esp)
  102291:	e8 8a 0b 00 00       	call   102e20 <pic_enable>
  ioapic_enable(IRQ_IDE, ncpu - 1);
  102296:	a1 20 b1 10 00       	mov    0x10b120,%eax
  10229b:	c7 04 24 0e 00 00 00 	movl   $0xe,(%esp)
  1022a2:	83 e8 01             	sub    $0x1,%eax
  1022a5:	89 44 24 04          	mov    %eax,0x4(%esp)
  1022a9:	e8 62 00 00 00       	call   102310 <ioapic_enable>
  ide_wait_ready(0);
  1022ae:	31 c0                	xor    %eax,%eax
  1022b0:	e8 9b fd ff ff       	call   102050 <ide_wait_ready>
}

static inline void
outb(ushort port, uchar data)
{
  asm volatile("out %0,%1" : : "a" (data), "d" (port));
  1022b5:	b8 f0 ff ff ff       	mov    $0xfffffff0,%eax
  1022ba:	ba f6 01 00 00       	mov    $0x1f6,%edx
  1022bf:	ee                   	out    %al,(%dx)
  1022c0:	31 c9                	xor    %ecx,%ecx
  1022c2:	eb 0b                	jmp    1022cf <ide_init+0x5f>
  
  // Check if disk 1 is present
  outb(0x1f6, 0xe0 | (1<<4));
  for(i=0; i<1000; i++){
  1022c4:	83 c1 01             	add    $0x1,%ecx
  1022c7:	81 f9 e8 03 00 00    	cmp    $0x3e8,%ecx
  1022cd:	74 14                	je     1022e3 <ide_init+0x73>
static inline uchar
inb(ushort port)
{
  uchar data;

  asm volatile("in %1,%0" : "=a" (data) : "d" (port));
  1022cf:	ba f7 01 00 00       	mov    $0x1f7,%edx
  1022d4:	ec                   	in     (%dx),%al
    if(inb(0x1f7) != 0){
  1022d5:	84 c0                	test   %al,%al
  1022d7:	74 eb                	je     1022c4 <ide_init+0x54>
      disk_1_present = 1;
  1022d9:	c7 05 38 78 10 00 01 	movl   $0x1,0x107838
  1022e0:	00 00 00 
}

static inline void
outb(ushort port, uchar data)
{
  asm volatile("out %0,%1" : : "a" (data), "d" (port));
  1022e3:	b8 e0 ff ff ff       	mov    $0xffffffe0,%eax
  1022e8:	ba f6 01 00 00       	mov    $0x1f6,%edx
  1022ed:	ee                   	out    %al,(%dx)
    }
  }
  
  // Switch back to disk 0.
  outb(0x1f6, 0xe0 | (0<<4));
}
  1022ee:	c9                   	leave  
  1022ef:	c3                   	ret    

001022f0 <ioapic_read>:
};

static uint
ioapic_read(int reg)
{
  ioapic->reg = reg;
  1022f0:	8b 15 54 aa 10 00    	mov    0x10aa54,%edx
  uint data;
};

static uint
ioapic_read(int reg)
{
  1022f6:	55                   	push   %ebp
  1022f7:	89 e5                	mov    %esp,%ebp
  ioapic->reg = reg;
  1022f9:	89 02                	mov    %eax,(%edx)
  return ioapic->data;
  1022fb:	8b 42 10             	mov    0x10(%edx),%eax
}
  1022fe:	5d                   	pop    %ebp
  1022ff:	c3                   	ret    

00102300 <ioapic_write>:

static void
ioapic_write(int reg, uint data)
{
  ioapic->reg = reg;
  102300:	8b 0d 54 aa 10 00    	mov    0x10aa54,%ecx
  return ioapic->data;
}

static void
ioapic_write(int reg, uint data)
{
  102306:	55                   	push   %ebp
  102307:	89 e5                	mov    %esp,%ebp
  ioapic->reg = reg;
  102309:	89 01                	mov    %eax,(%ecx)
  ioapic->data = data;
  10230b:	89 51 10             	mov    %edx,0x10(%ecx)
}
  10230e:	5d                   	pop    %ebp
  10230f:	c3                   	ret    

00102310 <ioapic_enable>:
  }
}

void
ioapic_enable(int irq, int cpunum)
{
  102310:	55                   	push   %ebp
  102311:	89 e5                	mov    %esp,%ebp
  102313:	83 ec 08             	sub    $0x8,%esp
  102316:	89 1c 24             	mov    %ebx,(%esp)
  102319:	89 74 24 04          	mov    %esi,0x4(%esp)
  if(!ismp)
  10231d:	8b 15 a0 aa 10 00    	mov    0x10aaa0,%edx
  }
}

void
ioapic_enable(int irq, int cpunum)
{
  102323:	8b 45 08             	mov    0x8(%ebp),%eax
  102326:	8b 5d 0c             	mov    0xc(%ebp),%ebx
  if(!ismp)
  102329:	85 d2                	test   %edx,%edx
  10232b:	75 0b                	jne    102338 <ioapic_enable+0x28>
  // Mark interrupt edge-triggered, active high,
  // enabled, and routed to the given cpunum,
  // which happens to be that cpu's APIC ID.
  ioapic_write(REG_TABLE+2*irq, IRQ_OFFSET + irq);
  ioapic_write(REG_TABLE+2*irq+1, cpunum << 24);
}
  10232d:	8b 1c 24             	mov    (%esp),%ebx
  102330:	8b 74 24 04          	mov    0x4(%esp),%esi
  102334:	89 ec                	mov    %ebp,%esp
  102336:	5d                   	pop    %ebp
  102337:	c3                   	ret    
    return;

  // Mark interrupt edge-triggered, active high,
  // enabled, and routed to the given cpunum,
  // which happens to be that cpu's APIC ID.
  ioapic_write(REG_TABLE+2*irq, IRQ_OFFSET + irq);
  102338:	8d 34 00             	lea    (%eax,%eax,1),%esi
  10233b:	8d 50 20             	lea    0x20(%eax),%edx
  ioapic_write(REG_TABLE+2*irq+1, cpunum << 24);
  10233e:	c1 e3 18             	shl    $0x18,%ebx
    return;

  // Mark interrupt edge-triggered, active high,
  // enabled, and routed to the given cpunum,
  // which happens to be that cpu's APIC ID.
  ioapic_write(REG_TABLE+2*irq, IRQ_OFFSET + irq);
  102341:	8d 46 10             	lea    0x10(%esi),%eax
  102344:	e8 b7 ff ff ff       	call   102300 <ioapic_write>
  ioapic_write(REG_TABLE+2*irq+1, cpunum << 24);
  102349:	8d 46 11             	lea    0x11(%esi),%eax
  10234c:	89 da                	mov    %ebx,%edx
}
  10234e:	8b 74 24 04          	mov    0x4(%esp),%esi
  102352:	8b 1c 24             	mov    (%esp),%ebx
  102355:	89 ec                	mov    %ebp,%esp
  102357:	5d                   	pop    %ebp

  // Mark interrupt edge-triggered, active high,
  // enabled, and routed to the given cpunum,
  // which happens to be that cpu's APIC ID.
  ioapic_write(REG_TABLE+2*irq, IRQ_OFFSET + irq);
  ioapic_write(REG_TABLE+2*irq+1, cpunum << 24);
  102358:	eb a6                	jmp    102300 <ioapic_write>
  10235a:	8d b6 00 00 00 00    	lea    0x0(%esi),%esi

00102360 <ioapic_init>:
  ioapic->data = data;
}

void
ioapic_init(void)
{
  102360:	55                   	push   %ebp
  102361:	89 e5                	mov    %esp,%ebp
  102363:	57                   	push   %edi
  102364:	56                   	push   %esi
  102365:	53                   	push   %ebx
  102366:	83 ec 0c             	sub    $0xc,%esp
  int i, id, maxintr;

  if(!ismp)
  102369:	8b 0d a0 aa 10 00    	mov    0x10aaa0,%ecx
  10236f:	85 c9                	test   %ecx,%ecx
  102371:	75 0d                	jne    102380 <ioapic_init+0x20>
  // and not routed to any CPUs.
  for(i = 0; i <= maxintr; i++){
    ioapic_write(REG_TABLE+2*i, INT_DISABLED | (IRQ_OFFSET + i));
    ioapic_write(REG_TABLE+2*i+1, 0);
  }
}
  102373:	83 c4 0c             	add    $0xc,%esp
  102376:	5b                   	pop    %ebx
  102377:	5e                   	pop    %esi
  102378:	5f                   	pop    %edi
  102379:	5d                   	pop    %ebp
  10237a:	c3                   	ret    
  10237b:	90                   	nop    
  10237c:	8d 74 26 00          	lea    0x0(%esi),%esi

  if(!ismp)
    return;

  ioapic = (volatile struct ioapic*)IOAPIC;
  maxintr = (ioapic_read(REG_VER) >> 16) & 0xFF;
  102380:	b8 01 00 00 00       	mov    $0x1,%eax
  int i, id, maxintr;

  if(!ismp)
    return;

  ioapic = (volatile struct ioapic*)IOAPIC;
  102385:	c7 05 54 aa 10 00 00 	movl   $0xfec00000,0x10aa54
  10238c:	00 c0 fe 
  maxintr = (ioapic_read(REG_VER) >> 16) & 0xFF;
  10238f:	e8 5c ff ff ff       	call   1022f0 <ioapic_read>
  102394:	c1 e8 10             	shr    $0x10,%eax
  102397:	0f b6 f8             	movzbl %al,%edi
  id = ioapic_read(REG_ID) >> 24;
  10239a:	31 c0                	xor    %eax,%eax
  10239c:	e8 4f ff ff ff       	call   1022f0 <ioapic_read>
  if(id != ioapic_id)
  1023a1:	0f b6 15 a4 aa 10 00 	movzbl 0x10aaa4,%edx
  1023a8:	c1 e8 18             	shr    $0x18,%eax
  1023ab:	39 c2                	cmp    %eax,%edx
  1023ad:	74 0c                	je     1023bb <ioapic_init+0x5b>
    cprintf("ioapic_init: id isn't equal to ioapic_id; not a MP\n");
  1023af:	c7 04 24 cc 68 10 00 	movl   $0x1068cc,(%esp)
  1023b6:	e8 b5 e3 ff ff       	call   100770 <cprintf>
  1023bb:	31 f6                	xor    %esi,%esi
  1023bd:	bb 10 00 00 00       	mov    $0x10,%ebx

  // Mark all interrupts edge-triggered, active high, disabled,
  // and not routed to any CPUs.
  for(i = 0; i <= maxintr; i++){
    ioapic_write(REG_TABLE+2*i, INT_DISABLED | (IRQ_OFFSET + i));
  1023c2:	8d 56 20             	lea    0x20(%esi),%edx
  1023c5:	89 d8                	mov    %ebx,%eax
  1023c7:	81 ca 00 00 01 00    	or     $0x10000,%edx
  if(id != ioapic_id)
    cprintf("ioapic_init: id isn't equal to ioapic_id; not a MP\n");

  // Mark all interrupts edge-triggered, active high, disabled,
  // and not routed to any CPUs.
  for(i = 0; i <= maxintr; i++){
  1023cd:	83 c6 01             	add    $0x1,%esi
    ioapic_write(REG_TABLE+2*i, INT_DISABLED | (IRQ_OFFSET + i));
  1023d0:	e8 2b ff ff ff       	call   102300 <ioapic_write>
    ioapic_write(REG_TABLE+2*i+1, 0);
  1023d5:	8d 43 01             	lea    0x1(%ebx),%eax
  1023d8:	31 d2                	xor    %edx,%edx
  1023da:	e8 21 ff ff ff       	call   102300 <ioapic_write>
  if(id != ioapic_id)
    cprintf("ioapic_init: id isn't equal to ioapic_id; not a MP\n");

  // Mark all interrupts edge-triggered, active high, disabled,
  // and not routed to any CPUs.
  for(i = 0; i <= maxintr; i++){
  1023df:	83 c3 02             	add    $0x2,%ebx
  1023e2:	39 f7                	cmp    %esi,%edi
  1023e4:	7d dc                	jge    1023c2 <ioapic_init+0x62>
    ioapic_write(REG_TABLE+2*i, INT_DISABLED | (IRQ_OFFSET + i));
    ioapic_write(REG_TABLE+2*i+1, 0);
  }
}
  1023e6:	83 c4 0c             	add    $0xc,%esp
  1023e9:	5b                   	pop    %ebx
  1023ea:	5e                   	pop    %esi
  1023eb:	5f                   	pop    %edi
  1023ec:	5d                   	pop    %ebp
  1023ed:	c3                   	ret    
  1023ee:	90                   	nop    
  1023ef:	90                   	nop    

001023f0 <kalloc>:
// Allocate n bytes of physical memory.
// Returns a kernel-segment pointer.
// Returns 0 if the memory cannot be allocated.
char*
kalloc(int n)
{
  1023f0:	55                   	push   %ebp
  1023f1:	89 e5                	mov    %esp,%ebp
  1023f3:	56                   	push   %esi
  1023f4:	53                   	push   %ebx
  1023f5:	83 ec 10             	sub    $0x10,%esp
  1023f8:	8b 75 08             	mov    0x8(%ebp),%esi
  char *p;
  struct run *r, **rp;

  if(n % PAGE || n <= 0)
  1023fb:	f7 c6 ff 0f 00 00    	test   $0xfff,%esi
  102401:	74 0d                	je     102410 <kalloc+0x20>
    panic("kalloc");
  102403:	c7 04 24 00 69 10 00 	movl   $0x106900,(%esp)
  10240a:	e8 01 e5 ff ff       	call   100910 <panic>
  10240f:	90                   	nop    
kalloc(int n)
{
  char *p;
  struct run *r, **rp;

  if(n % PAGE || n <= 0)
  102410:	85 f6                	test   %esi,%esi
  102412:	7e ef                	jle    102403 <kalloc+0x13>
    panic("kalloc");

  acquire(&kalloc_lock);
  102414:	c7 04 24 60 aa 10 00 	movl   $0x10aa60,(%esp)
  10241b:	e8 c0 21 00 00       	call   1045e0 <acquire>
  for(rp=&freelist; (r=*rp) != 0; rp=&r->next){
  102420:	8b 1d 94 aa 10 00    	mov    0x10aa94,%ebx
  102426:	85 db                	test   %ebx,%ebx
  102428:	74 3e                	je     102468 <kalloc+0x78>
    if(r->len == n){
  10242a:	8b 43 04             	mov    0x4(%ebx),%eax
  10242d:	ba 94 aa 10 00       	mov    $0x10aa94,%edx
  102432:	39 f0                	cmp    %esi,%eax
  102434:	75 11                	jne    102447 <kalloc+0x57>
  102436:	eb 53                	jmp    10248b <kalloc+0x9b>

  if(n % PAGE || n <= 0)
    panic("kalloc");

  acquire(&kalloc_lock);
  for(rp=&freelist; (r=*rp) != 0; rp=&r->next){
  102438:	89 da                	mov    %ebx,%edx
  10243a:	8b 1b                	mov    (%ebx),%ebx
  10243c:	85 db                	test   %ebx,%ebx
  10243e:	74 28                	je     102468 <kalloc+0x78>
    if(r->len == n){
  102440:	8b 43 04             	mov    0x4(%ebx),%eax
  102443:	39 f0                	cmp    %esi,%eax
  102445:	74 44                	je     10248b <kalloc+0x9b>
      *rp = r->next;
      release(&kalloc_lock);
      return (char*)r;
    }
    if(r->len > n){
  102447:	39 c6                	cmp    %eax,%esi
  102449:	7d ed                	jge    102438 <kalloc+0x48>
      r->len -= n;
  10244b:	29 f0                	sub    %esi,%eax
  10244d:	89 43 04             	mov    %eax,0x4(%ebx)
      p = (char*)r + r->len;
  102450:	8d 1c 18             	lea    (%eax,%ebx,1),%ebx
      release(&kalloc_lock);
  102453:	c7 04 24 60 aa 10 00 	movl   $0x10aa60,(%esp)
  10245a:	e8 41 21 00 00       	call   1045a0 <release>
  }
  release(&kalloc_lock);

  cprintf("kalloc: out of memory\n");
  return 0;
}
  10245f:	83 c4 10             	add    $0x10,%esp
  102462:	89 d8                	mov    %ebx,%eax
  102464:	5b                   	pop    %ebx
  102465:	5e                   	pop    %esi
  102466:	5d                   	pop    %ebp
  102467:	c3                   	ret    
      p = (char*)r + r->len;
      release(&kalloc_lock);
      return p;
    }
  }
  release(&kalloc_lock);
  102468:	c7 04 24 60 aa 10 00 	movl   $0x10aa60,(%esp)

  cprintf("kalloc: out of memory\n");
  10246f:	31 db                	xor    %ebx,%ebx
      p = (char*)r + r->len;
      release(&kalloc_lock);
      return p;
    }
  }
  release(&kalloc_lock);
  102471:	e8 2a 21 00 00       	call   1045a0 <release>

  cprintf("kalloc: out of memory\n");
  102476:	c7 04 24 07 69 10 00 	movl   $0x106907,(%esp)
  10247d:	e8 ee e2 ff ff       	call   100770 <cprintf>
  return 0;
}
  102482:	83 c4 10             	add    $0x10,%esp
  102485:	89 d8                	mov    %ebx,%eax
  102487:	5b                   	pop    %ebx
  102488:	5e                   	pop    %esi
  102489:	5d                   	pop    %ebp
  10248a:	c3                   	ret    
    panic("kalloc");

  acquire(&kalloc_lock);
  for(rp=&freelist; (r=*rp) != 0; rp=&r->next){
    if(r->len == n){
      *rp = r->next;
  10248b:	8b 03                	mov    (%ebx),%eax
  10248d:	89 02                	mov    %eax,(%edx)
      release(&kalloc_lock);
  10248f:	c7 04 24 60 aa 10 00 	movl   $0x10aa60,(%esp)
  102496:	e8 05 21 00 00       	call   1045a0 <release>
  }
  release(&kalloc_lock);

  cprintf("kalloc: out of memory\n");
  return 0;
}
  10249b:	83 c4 10             	add    $0x10,%esp
  10249e:	89 d8                	mov    %ebx,%eax
  1024a0:	5b                   	pop    %ebx
  1024a1:	5e                   	pop    %esi
  1024a2:	5d                   	pop    %ebp
  1024a3:	c3                   	ret    
  1024a4:	8d b6 00 00 00 00    	lea    0x0(%esi),%esi
  1024aa:	8d bf 00 00 00 00    	lea    0x0(%edi),%edi

001024b0 <kfree>:
// which normally should have been returned by a
// call to kalloc(len).  (The exception is when
// initializing the allocator; see kinit above.)
void
kfree(char *v, int len)
{
  1024b0:	55                   	push   %ebp
  1024b1:	89 e5                	mov    %esp,%ebp
  1024b3:	57                   	push   %edi
  1024b4:	56                   	push   %esi
  1024b5:	53                   	push   %ebx
  1024b6:	83 ec 1c             	sub    $0x1c,%esp
  1024b9:	8b 7d 0c             	mov    0xc(%ebp),%edi
  1024bc:	8b 5d 08             	mov    0x8(%ebp),%ebx
  struct run *r, *rend, **rp, *p, *pend;

  if(len <= 0 || len % PAGE)
  1024bf:	85 ff                	test   %edi,%edi
  1024c1:	7e 08                	jle    1024cb <kfree+0x1b>
  1024c3:	f7 c7 ff 0f 00 00    	test   $0xfff,%edi
  1024c9:	74 0c                	je     1024d7 <kfree+0x27>
    panic("kfree");
  1024cb:	c7 04 24 1e 69 10 00 	movl   $0x10691e,(%esp)
  1024d2:	e8 39 e4 ff ff       	call   100910 <panic>

  // Fill with junk to catch dangling refs.
  memset(v, 1, len);
  1024d7:	89 7c 24 08          	mov    %edi,0x8(%esp)
  1024db:	c7 44 24 04 01 00 00 	movl   $0x1,0x4(%esp)
  1024e2:	00 
  1024e3:	89 1c 24             	mov    %ebx,(%esp)
  1024e6:	e8 55 21 00 00       	call   104640 <memset>

  acquire(&kalloc_lock);
  1024eb:	c7 04 24 60 aa 10 00 	movl   $0x10aa60,(%esp)
  1024f2:	e8 e9 20 00 00       	call   1045e0 <acquire>
  p = (struct run*)v;
  pend = (struct run*)(v + len);
  for(rp=&freelist; (r=*rp) != 0 && r <= pend; rp=&r->next){
  1024f7:	8b 15 94 aa 10 00    	mov    0x10aa94,%edx
  1024fd:	c7 45 f0 94 aa 10 00 	movl   $0x10aa94,-0x10(%ebp)
  102504:	85 d2                	test   %edx,%edx
  102506:	74 73                	je     10257b <kfree+0xcb>
  // Fill with junk to catch dangling refs.
  memset(v, 1, len);

  acquire(&kalloc_lock);
  p = (struct run*)v;
  pend = (struct run*)(v + len);
  102508:	8d 34 3b             	lea    (%ebx,%edi,1),%esi
  for(rp=&freelist; (r=*rp) != 0 && r <= pend; rp=&r->next){
  10250b:	39 f2                	cmp    %esi,%edx
  10250d:	77 6c                	ja     10257b <kfree+0xcb>
    rend = (struct run*)((char*)r + r->len);
  10250f:	8b 42 04             	mov    0x4(%edx),%eax
    if(r <= p && p < rend)
  102512:	39 da                	cmp    %ebx,%edx

  acquire(&kalloc_lock);
  p = (struct run*)v;
  pend = (struct run*)(v + len);
  for(rp=&freelist; (r=*rp) != 0 && r <= pend; rp=&r->next){
    rend = (struct run*)((char*)r + r->len);
  102514:	8d 0c 10             	lea    (%eax,%edx,1),%ecx
    if(r <= p && p < rend)
  102517:	76 5c                	jbe    102575 <kfree+0xc5>
      panic("freeing free page");
    if(pend == r){  // p next to r: replace r with p
  102519:	39 d6                	cmp    %edx,%esi
  10251b:	c7 45 f0 94 aa 10 00 	movl   $0x10aa94,-0x10(%ebp)
  102522:	74 30                	je     102554 <kfree+0xa4>
      p->len = len + r->len;
      p->next = r->next;
      *rp = p;
      goto out;
    }
    if(rend == p){  // r next to p: replace p with r
  102524:	39 d9                	cmp    %ebx,%ecx
  102526:	74 5f                	je     102587 <kfree+0xd7>
  memset(v, 1, len);

  acquire(&kalloc_lock);
  p = (struct run*)v;
  pend = (struct run*)(v + len);
  for(rp=&freelist; (r=*rp) != 0 && r <= pend; rp=&r->next){
  102528:	89 55 f0             	mov    %edx,-0x10(%ebp)
  10252b:	8b 12                	mov    (%edx),%edx
  10252d:	85 d2                	test   %edx,%edx
  10252f:	74 4a                	je     10257b <kfree+0xcb>
  102531:	39 d6                	cmp    %edx,%esi
  102533:	72 46                	jb     10257b <kfree+0xcb>
    rend = (struct run*)((char*)r + r->len);
  102535:	8b 42 04             	mov    0x4(%edx),%eax
    if(r <= p && p < rend)
  102538:	39 da                	cmp    %ebx,%edx

  acquire(&kalloc_lock);
  p = (struct run*)v;
  pend = (struct run*)(v + len);
  for(rp=&freelist; (r=*rp) != 0 && r <= pend; rp=&r->next){
    rend = (struct run*)((char*)r + r->len);
  10253a:	8d 0c 10             	lea    (%eax,%edx,1),%ecx
    if(r <= p && p < rend)
  10253d:	77 11                	ja     102550 <kfree+0xa0>
  10253f:	39 cb                	cmp    %ecx,%ebx
  102541:	73 0d                	jae    102550 <kfree+0xa0>
      panic("freeing free page");
  102543:	c7 04 24 24 69 10 00 	movl   $0x106924,(%esp)
  10254a:	e8 c1 e3 ff ff       	call   100910 <panic>
  10254f:	90                   	nop    
    if(pend == r){  // p next to r: replace r with p
  102550:	39 d6                	cmp    %edx,%esi
  102552:	75 d0                	jne    102524 <kfree+0x74>
      p->len = len + r->len;
  102554:	01 f8                	add    %edi,%eax
  102556:	89 43 04             	mov    %eax,0x4(%ebx)
      p->next = r->next;
  102559:	8b 06                	mov    (%esi),%eax
  10255b:	89 03                	mov    %eax,(%ebx)
      *rp = p;
  10255d:	8b 45 f0             	mov    -0x10(%ebp),%eax
  102560:	89 18                	mov    %ebx,(%eax)
  p->len = len;
  p->next = r;
  *rp = p;

 out:
  release(&kalloc_lock);
  102562:	c7 45 08 60 aa 10 00 	movl   $0x10aa60,0x8(%ebp)
}
  102569:	83 c4 1c             	add    $0x1c,%esp
  10256c:	5b                   	pop    %ebx
  10256d:	5e                   	pop    %esi
  10256e:	5f                   	pop    %edi
  10256f:	5d                   	pop    %ebp
  p->len = len;
  p->next = r;
  *rp = p;

 out:
  release(&kalloc_lock);
  102570:	e9 2b 20 00 00       	jmp    1045a0 <release>
  acquire(&kalloc_lock);
  p = (struct run*)v;
  pend = (struct run*)(v + len);
  for(rp=&freelist; (r=*rp) != 0 && r <= pend; rp=&r->next){
    rend = (struct run*)((char*)r + r->len);
    if(r <= p && p < rend)
  102575:	39 cb                	cmp    %ecx,%ebx
  102577:	72 ca                	jb     102543 <kfree+0x93>
  102579:	eb 9e                	jmp    102519 <kfree+0x69>
    }
  }
  // Insert p before r in list.
  p->len = len;
  p->next = r;
  *rp = p;
  10257b:	8b 45 f0             	mov    -0x10(%ebp),%eax
      goto out;
    }
  }
  // Insert p before r in list.
  p->len = len;
  p->next = r;
  10257e:	89 13                	mov    %edx,(%ebx)
      }
      goto out;
    }
  }
  // Insert p before r in list.
  p->len = len;
  102580:	89 7b 04             	mov    %edi,0x4(%ebx)
  p->next = r;
  *rp = p;
  102583:	89 18                	mov    %ebx,(%eax)
  102585:	eb db                	jmp    102562 <kfree+0xb2>
      *rp = p;
      goto out;
    }
    if(rend == p){  // r next to p: replace p with r
      r->len += len;
      if(r->next && r->next == pend){  // r now next to r->next?
  102587:	8b 0a                	mov    (%edx),%ecx
      p->next = r->next;
      *rp = p;
      goto out;
    }
    if(rend == p){  // r next to p: replace p with r
      r->len += len;
  102589:	01 f8                	add    %edi,%eax
  10258b:	89 42 04             	mov    %eax,0x4(%edx)
      if(r->next && r->next == pend){  // r now next to r->next?
  10258e:	85 c9                	test   %ecx,%ecx
  102590:	74 d0                	je     102562 <kfree+0xb2>
  102592:	39 ce                	cmp    %ecx,%esi
  102594:	75 cc                	jne    102562 <kfree+0xb2>
        r->len += r->next->len;
  102596:	03 46 04             	add    0x4(%esi),%eax
  102599:	89 42 04             	mov    %eax,0x4(%edx)
        r->next = r->next->next;
  10259c:	8b 06                	mov    (%esi),%eax
  10259e:	89 02                	mov    %eax,(%edx)
  1025a0:	eb c0                	jmp    102562 <kfree+0xb2>
  1025a2:	8d b4 26 00 00 00 00 	lea    0x0(%esi),%esi
  1025a9:	8d bc 27 00 00 00 00 	lea    0x0(%edi),%edi

001025b0 <kinit>:
// This code cheats by just considering one megabyte of
// pages after _end.  Real systems would determine the
// amount of memory available in the system and use it all.
void
kinit(void)
{
  1025b0:	55                   	push   %ebp
  1025b1:	89 e5                	mov    %esp,%ebp
  1025b3:	53                   	push   %ebx
  uint mem;
  char *start;

  initlock(&kalloc_lock, "kalloc");
  start = (char*) &end;
  start = (char*) (((uint)start + PAGE) & ~(PAGE-1));
  1025b4:	bb c4 f2 10 00       	mov    $0x10f2c4,%ebx
// This code cheats by just considering one megabyte of
// pages after _end.  Real systems would determine the
// amount of memory available in the system and use it all.
void
kinit(void)
{
  1025b9:	83 ec 14             	sub    $0x14,%esp
  uint mem;
  char *start;

  initlock(&kalloc_lock, "kalloc");
  start = (char*) &end;
  start = (char*) (((uint)start + PAGE) & ~(PAGE-1));
  1025bc:	81 e3 00 f0 ff ff    	and    $0xfffff000,%ebx
{
  extern int end;
  uint mem;
  char *start;

  initlock(&kalloc_lock, "kalloc");
  1025c2:	c7 44 24 04 00 69 10 	movl   $0x106900,0x4(%esp)
  1025c9:	00 
  1025ca:	c7 04 24 60 aa 10 00 	movl   $0x10aa60,(%esp)
  1025d1:	e8 4a 1e 00 00       	call   104420 <initlock>
  start = (char*) &end;
  start = (char*) (((uint)start + PAGE) & ~(PAGE-1));
  mem = 256; // assume computer has 256 pages of RAM
  cprintf("mem = %d\n", mem * PAGE);
  1025d6:	c7 44 24 04 00 00 10 	movl   $0x100000,0x4(%esp)
  1025dd:	00 
  1025de:	c7 04 24 36 69 10 00 	movl   $0x106936,(%esp)
  1025e5:	e8 86 e1 ff ff       	call   100770 <cprintf>
  kfree(start, mem * PAGE);
  1025ea:	89 1c 24             	mov    %ebx,(%esp)
  1025ed:	c7 44 24 04 00 00 10 	movl   $0x100000,0x4(%esp)
  1025f4:	00 
  1025f5:	e8 b6 fe ff ff       	call   1024b0 <kfree>
}
  1025fa:	83 c4 14             	add    $0x14,%esp
  1025fd:	5b                   	pop    %ebx
  1025fe:	5d                   	pop    %ebp
  1025ff:	c3                   	ret    

00102600 <kbd_intr>:
  return c;
}

void
kbd_intr(void)
{
  102600:	55                   	push   %ebp
  102601:	89 e5                	mov    %esp,%ebp
  102603:	83 ec 08             	sub    $0x8,%esp
  console_intr(kbd_getc);
  102606:	c7 04 24 20 26 10 00 	movl   $0x102620,(%esp)
  10260d:	e8 2e df ff ff       	call   100540 <console_intr>
}
  102612:	c9                   	leave  
  102613:	c3                   	ret    
  102614:	8d b6 00 00 00 00    	lea    0x0(%esi),%esi
  10261a:	8d bf 00 00 00 00    	lea    0x0(%edi),%edi

00102620 <kbd_getc>:
#include "defs.h"
#include "kbd.h"

int
kbd_getc(void)
{
  102620:	55                   	push   %ebp
static inline uchar
inb(ushort port)
{
  uchar data;

  asm volatile("in %1,%0" : "=a" (data) : "d" (port));
  102621:	ba 64 00 00 00       	mov    $0x64,%edx
  102626:	89 e5                	mov    %esp,%ebp
  102628:	ec                   	in     (%dx),%al
    normalmap, shiftmap, ctlmap, ctlmap
  };
  uint st, data, c;

  st = inb(KBSTATP);
  if((st & KBS_DIB) == 0)
  102629:	a8 01                	test   $0x1,%al
  10262b:	ba ff ff ff ff       	mov    $0xffffffff,%edx
  102630:	74 3e                	je     102670 <kbd_getc+0x50>
  102632:	ba 60 00 00 00       	mov    $0x60,%edx
  102637:	ec                   	in     (%dx),%al
    return -1;
  data = inb(KBDATAP);

  if(data == 0xE0){
  102638:	3c e0                	cmp    $0xe0,%al
  10263a:	0f 84 84 00 00 00    	je     1026c4 <kbd_getc+0xa4>
  uint st, data, c;

  st = inb(KBSTATP);
  if((st & KBS_DIB) == 0)
    return -1;
  data = inb(KBDATAP);
  102640:	0f b6 c8             	movzbl %al,%ecx

  if(data == 0xE0){
    shift |= E0ESC;
    return 0;
  } else if(data & 0x80){
  102643:	84 c9                	test   %cl,%cl
  102645:	79 2d                	jns    102674 <kbd_getc+0x54>
    // Key released
    data = (shift & E0ESC ? data : data & 0x7F);
  102647:	8b 15 3c 78 10 00    	mov    0x10783c,%edx
  10264d:	f6 c2 40             	test   $0x40,%dl
  102650:	75 03                	jne    102655 <kbd_getc+0x35>
  102652:	83 e1 7f             	and    $0x7f,%ecx
    shift &= ~(shiftcode[data] | E0ESC);
  102655:	0f b6 81 40 69 10 00 	movzbl 0x106940(%ecx),%eax
  10265c:	83 c8 40             	or     $0x40,%eax
  10265f:	0f b6 c0             	movzbl %al,%eax
  102662:	f7 d0                	not    %eax
  102664:	21 d0                	and    %edx,%eax
  102666:	31 d2                	xor    %edx,%edx
  102668:	a3 3c 78 10 00       	mov    %eax,0x10783c
  10266d:	8d 76 00             	lea    0x0(%esi),%esi
      c += 'A' - 'a';
    else if('A' <= c && c <= 'Z')
      c += 'a' - 'A';
  }
  return c;
}
  102670:	5d                   	pop    %ebp
  102671:	89 d0                	mov    %edx,%eax
  102673:	c3                   	ret    
  } else if(data & 0x80){
    // Key released
    data = (shift & E0ESC ? data : data & 0x7F);
    shift &= ~(shiftcode[data] | E0ESC);
    return 0;
  } else if(shift & E0ESC){
  102674:	a1 3c 78 10 00       	mov    0x10783c,%eax
  102679:	a8 40                	test   $0x40,%al
  10267b:	74 0b                	je     102688 <kbd_getc+0x68>
    // Last character was an E0 escape; or with 0x80
    data |= 0x80;
    shift &= ~E0ESC;
  10267d:	83 e0 bf             	and    $0xffffffbf,%eax
    data = (shift & E0ESC ? data : data & 0x7F);
    shift &= ~(shiftcode[data] | E0ESC);
    return 0;
  } else if(shift & E0ESC){
    // Last character was an E0 escape; or with 0x80
    data |= 0x80;
  102680:	80 c9 80             	or     $0x80,%cl
    shift &= ~E0ESC;
  102683:	a3 3c 78 10 00       	mov    %eax,0x10783c
  }

  shift |= shiftcode[data];
  shift ^= togglecode[data];
  102688:	0f b6 91 40 6a 10 00 	movzbl 0x106a40(%ecx),%edx
  10268f:	0f b6 81 40 69 10 00 	movzbl 0x106940(%ecx),%eax
  102696:	0b 05 3c 78 10 00    	or     0x10783c,%eax
  10269c:	31 d0                	xor    %edx,%eax
  c = charcode[shift & (CTL | SHIFT)][data];
  10269e:	89 c2                	mov    %eax,%edx
  1026a0:	83 e2 03             	and    $0x3,%edx
  if(shift & CAPSLOCK){
  1026a3:	a8 08                	test   $0x8,%al
    shift &= ~E0ESC;
  }

  shift |= shiftcode[data];
  shift ^= togglecode[data];
  c = charcode[shift & (CTL | SHIFT)][data];
  1026a5:	8b 14 95 40 6b 10 00 	mov    0x106b40(,%edx,4),%edx
    data |= 0x80;
    shift &= ~E0ESC;
  }

  shift |= shiftcode[data];
  shift ^= togglecode[data];
  1026ac:	a3 3c 78 10 00       	mov    %eax,0x10783c
  c = charcode[shift & (CTL | SHIFT)][data];
  1026b1:	0f b6 14 0a          	movzbl (%edx,%ecx,1),%edx
  if(shift & CAPSLOCK){
  1026b5:	74 b9                	je     102670 <kbd_getc+0x50>
    if('a' <= c && c <= 'z')
  1026b7:	8d 42 9f             	lea    -0x61(%edx),%eax
  1026ba:	83 f8 19             	cmp    $0x19,%eax
  1026bd:	77 12                	ja     1026d1 <kbd_getc+0xb1>
      c += 'A' - 'a';
  1026bf:	83 ea 20             	sub    $0x20,%edx
  1026c2:	eb ac                	jmp    102670 <kbd_getc+0x50>
  if((st & KBS_DIB) == 0)
    return -1;
  data = inb(KBDATAP);

  if(data == 0xE0){
    shift |= E0ESC;
  1026c4:	83 0d 3c 78 10 00 40 	orl    $0x40,0x10783c
  1026cb:	31 d2                	xor    %edx,%edx
      c += 'A' - 'a';
    else if('A' <= c && c <= 'Z')
      c += 'a' - 'A';
  }
  return c;
}
  1026cd:	5d                   	pop    %ebp
  1026ce:	89 d0                	mov    %edx,%eax
  1026d0:	c3                   	ret    
  shift ^= togglecode[data];
  c = charcode[shift & (CTL | SHIFT)][data];
  if(shift & CAPSLOCK){
    if('a' <= c && c <= 'z')
      c += 'A' - 'a';
    else if('A' <= c && c <= 'Z')
  1026d1:	8d 42 bf             	lea    -0x41(%edx),%eax
  1026d4:	83 f8 19             	cmp    $0x19,%eax
  1026d7:	77 97                	ja     102670 <kbd_getc+0x50>
      c += 'a' - 'A';
  1026d9:	83 c2 20             	add    $0x20,%edx
  1026dc:	eb 92                	jmp    102670 <kbd_getc+0x50>
  1026de:	90                   	nop    
  1026df:	90                   	nop    

001026e0 <lapicw>:
volatile uint *lapic;  // Initialized in mp.c

static void
lapicw(int index, int value)
{
  lapic[index] = value;
  1026e0:	8b 0d 98 aa 10 00    	mov    0x10aa98,%ecx

volatile uint *lapic;  // Initialized in mp.c

static void
lapicw(int index, int value)
{
  1026e6:	55                   	push   %ebp
  1026e7:	89 e5                	mov    %esp,%ebp
  lapic[index] = value;
  1026e9:	8d 04 81             	lea    (%ecx,%eax,4),%eax
  1026ec:	89 10                	mov    %edx,(%eax)
  lapic[ID];  // wait for write to finish, by reading
  1026ee:	8b 41 20             	mov    0x20(%ecx),%eax
}
  1026f1:	5d                   	pop    %ebp
  1026f2:	c3                   	ret    
  1026f3:	8d b6 00 00 00 00    	lea    0x0(%esi),%esi
  1026f9:	8d bc 27 00 00 00 00 	lea    0x0(%edi),%edi

00102700 <lapic_init>:

void
lapic_init(int c)
{
  if(!lapic) 
  102700:	a1 98 aa 10 00       	mov    0x10aa98,%eax
  lapic[ID];  // wait for write to finish, by reading
}

void
lapic_init(int c)
{
  102705:	55                   	push   %ebp
  102706:	89 e5                	mov    %esp,%ebp
  if(!lapic) 
  102708:	85 c0                	test   %eax,%eax
  10270a:	0f 84 ea 00 00 00    	je     1027fa <lapic_init+0xfa>
    return;

  // Enable local APIC; set spurious interrupt vector.
  lapicw(SVR, ENABLE | (IRQ_OFFSET+IRQ_SPURIOUS));
  102710:	ba 3f 01 00 00       	mov    $0x13f,%edx
  102715:	b8 3c 00 00 00       	mov    $0x3c,%eax
  10271a:	e8 c1 ff ff ff       	call   1026e0 <lapicw>

  // The timer repeatedly counts down at bus frequency
  // from lapic[TICR] and then issues an interrupt.  
  // If xv6 cared more about precise timekeeping,
  // TICR would be calibrated using an external time source.
  lapicw(TDCR, X1);
  10271f:	ba 0b 00 00 00       	mov    $0xb,%edx
  102724:	b8 f8 00 00 00       	mov    $0xf8,%eax
  102729:	e8 b2 ff ff ff       	call   1026e0 <lapicw>
  lapicw(TIMER, PERIODIC | (IRQ_OFFSET + IRQ_TIMER));
  10272e:	ba 20 00 02 00       	mov    $0x20020,%edx
  102733:	b8 c8 00 00 00       	mov    $0xc8,%eax
  102738:	e8 a3 ff ff ff       	call   1026e0 <lapicw>
  lapicw(TICR, 10000000); 
  10273d:	ba 80 96 98 00       	mov    $0x989680,%edx
  102742:	b8 e0 00 00 00       	mov    $0xe0,%eax
  102747:	e8 94 ff ff ff       	call   1026e0 <lapicw>

  // Disable logical interrupt lines.
  lapicw(LINT0, MASKED);
  10274c:	ba 00 00 01 00       	mov    $0x10000,%edx
  102751:	b8 d4 00 00 00       	mov    $0xd4,%eax
  102756:	e8 85 ff ff ff       	call   1026e0 <lapicw>
  lapicw(LINT1, MASKED);
  10275b:	b8 d8 00 00 00       	mov    $0xd8,%eax
  102760:	ba 00 00 01 00       	mov    $0x10000,%edx
  102765:	e8 76 ff ff ff       	call   1026e0 <lapicw>

  // Disable performance counter overflow interrupts
  // on machines that provide that interrupt entry.
  if(((lapic[VER]>>16) & 0xFF) >= 4)
  10276a:	a1 98 aa 10 00       	mov    0x10aa98,%eax
  10276f:	83 c0 30             	add    $0x30,%eax
  102772:	8b 00                	mov    (%eax),%eax
  102774:	c1 e8 10             	shr    $0x10,%eax
  102777:	3c 03                	cmp    $0x3,%al
  102779:	77 6e                	ja     1027e9 <lapic_init+0xe9>
    lapicw(PCINT, MASKED);

  // Map error interrupt to IRQ_ERROR.
  lapicw(ERROR, IRQ_OFFSET+IRQ_ERROR);
  10277b:	ba 33 00 00 00       	mov    $0x33,%edx
  102780:	b8 dc 00 00 00       	mov    $0xdc,%eax
  102785:	e8 56 ff ff ff       	call   1026e0 <lapicw>

  // Clear error status register (requires back-to-back writes).
  lapicw(ESR, 0);
  10278a:	31 d2                	xor    %edx,%edx
  10278c:	b8 a0 00 00 00       	mov    $0xa0,%eax
  102791:	e8 4a ff ff ff       	call   1026e0 <lapicw>
  lapicw(ESR, 0);
  102796:	31 d2                	xor    %edx,%edx
  102798:	b8 a0 00 00 00       	mov    $0xa0,%eax
  10279d:	e8 3e ff ff ff       	call   1026e0 <lapicw>

  // Ack any outstanding interrupts.
  lapicw(EOI, 0);
  1027a2:	31 d2                	xor    %edx,%edx
  1027a4:	b8 2c 00 00 00       	mov    $0x2c,%eax
  1027a9:	e8 32 ff ff ff       	call   1026e0 <lapicw>

  // Send an Init Level De-Assert to synchronise arbitration ID's.
  lapicw(ICRHI, 0);
  1027ae:	31 d2                	xor    %edx,%edx
  1027b0:	b8 c4 00 00 00       	mov    $0xc4,%eax
  1027b5:	e8 26 ff ff ff       	call   1026e0 <lapicw>
  lapicw(ICRLO, BCAST | INIT | LEVEL);
  1027ba:	ba 00 85 08 00       	mov    $0x88500,%edx
  1027bf:	b8 c0 00 00 00       	mov    $0xc0,%eax
  1027c4:	e8 17 ff ff ff       	call   1026e0 <lapicw>
  while(lapic[ICRLO] & DELIVS)
  1027c9:	8b 15 98 aa 10 00    	mov    0x10aa98,%edx
  1027cf:	81 c2 00 03 00 00    	add    $0x300,%edx
  1027d5:	8b 02                	mov    (%edx),%eax
  1027d7:	f6 c4 10             	test   $0x10,%ah
  1027da:	75 f9                	jne    1027d5 <lapic_init+0xd5>
    ;

  // Enable interrupts on the APIC (but not on the processor).
  lapicw(TPR, 0);
}
  1027dc:	5d                   	pop    %ebp
  lapicw(ICRLO, BCAST | INIT | LEVEL);
  while(lapic[ICRLO] & DELIVS)
    ;

  // Enable interrupts on the APIC (but not on the processor).
  lapicw(TPR, 0);
  1027dd:	31 d2                	xor    %edx,%edx
  1027df:	b8 20 00 00 00       	mov    $0x20,%eax
  1027e4:	e9 f7 fe ff ff       	jmp    1026e0 <lapicw>
  lapicw(LINT1, MASKED);

  // Disable performance counter overflow interrupts
  // on machines that provide that interrupt entry.
  if(((lapic[VER]>>16) & 0xFF) >= 4)
    lapicw(PCINT, MASKED);
  1027e9:	ba 00 00 01 00       	mov    $0x10000,%edx
  1027ee:	b8 d0 00 00 00       	mov    $0xd0,%eax
  1027f3:	e8 e8 fe ff ff       	call   1026e0 <lapicw>
  1027f8:	eb 81                	jmp    10277b <lapic_init+0x7b>
  while(lapic[ICRLO] & DELIVS)
    ;

  // Enable interrupts on the APIC (but not on the processor).
  lapicw(TPR, 0);
}
  1027fa:	5d                   	pop    %ebp
  1027fb:	c3                   	ret    
  1027fc:	8d 74 26 00          	lea    0x0(%esi),%esi

00102800 <lapic_eoi>:

// Acknowledge interrupt.
void
lapic_eoi(void)
{
  if(lapic)
  102800:	8b 15 98 aa 10 00    	mov    0x10aa98,%edx
}

// Acknowledge interrupt.
void
lapic_eoi(void)
{
  102806:	55                   	push   %ebp
  102807:	89 e5                	mov    %esp,%ebp
  if(lapic)
  102809:	85 d2                	test   %edx,%edx
  10280b:	74 13                	je     102820 <lapic_eoi+0x20>
    lapicw(EOI, 0);
}
  10280d:	5d                   	pop    %ebp
// Acknowledge interrupt.
void
lapic_eoi(void)
{
  if(lapic)
    lapicw(EOI, 0);
  10280e:	31 d2                	xor    %edx,%edx
  102810:	b8 2c 00 00 00       	mov    $0x2c,%eax
  102815:	e9 c6 fe ff ff       	jmp    1026e0 <lapicw>
  10281a:	8d b6 00 00 00 00    	lea    0x0(%esi),%esi
}
  102820:	5d                   	pop    %ebp
  102821:	c3                   	ret    
  102822:	8d b4 26 00 00 00 00 	lea    0x0(%esi),%esi
  102829:	8d bc 27 00 00 00 00 	lea    0x0(%edi),%edi

00102830 <microdelay>:

// Spin for a given number of microseconds.
// On real hardware would want to tune this dynamically.
static void
microdelay(int us)
{
  102830:	55                   	push   %ebp
  volatile int j = 0;
  102831:	89 c2                	mov    %eax,%edx

// Spin for a given number of microseconds.
// On real hardware would want to tune this dynamically.
static void
microdelay(int us)
{
  102833:	89 e5                	mov    %esp,%ebp
  102835:	83 ec 10             	sub    $0x10,%esp
  volatile int j = 0;
  102838:	c7 45 fc 00 00 00 00 	movl   $0x0,-0x4(%ebp)
  10283f:	eb 14                	jmp    102855 <microdelay+0x25>
  
  while(us-- > 0)
    for(j=0; j<10000; j++);
  102841:	c7 45 fc 00 00 00 00 	movl   $0x0,-0x4(%ebp)
  102848:	8b 45 fc             	mov    -0x4(%ebp),%eax
  10284b:	3d 0f 27 00 00       	cmp    $0x270f,%eax
  102850:	7e 0e                	jle    102860 <microdelay+0x30>
  102852:	83 ea 01             	sub    $0x1,%edx
static void
microdelay(int us)
{
  volatile int j = 0;
  
  while(us-- > 0)
  102855:	85 d2                	test   %edx,%edx
  102857:	7f e8                	jg     102841 <microdelay+0x11>
    for(j=0; j<10000; j++);
}
  102859:	c9                   	leave  
  10285a:	c3                   	ret    
  10285b:	90                   	nop    
  10285c:	8d 74 26 00          	lea    0x0(%esi),%esi
microdelay(int us)
{
  volatile int j = 0;
  
  while(us-- > 0)
    for(j=0; j<10000; j++);
  102860:	8b 45 fc             	mov    -0x4(%ebp),%eax
  102863:	83 c0 01             	add    $0x1,%eax
  102866:	89 45 fc             	mov    %eax,-0x4(%ebp)
  102869:	8b 45 fc             	mov    -0x4(%ebp),%eax
  10286c:	3d 0f 27 00 00       	cmp    $0x270f,%eax
  102871:	7f df                	jg     102852 <microdelay+0x22>
  102873:	eb eb                	jmp    102860 <microdelay+0x30>
  102875:	8d 74 26 00          	lea    0x0(%esi),%esi
  102879:	8d bc 27 00 00 00 00 	lea    0x0(%edi),%edi

00102880 <cpu>:
  lapicw(TPR, 0);
}

int
cpu(void)
{
  102880:	55                   	push   %ebp
  102881:	89 e5                	mov    %esp,%ebp
  102883:	83 ec 08             	sub    $0x8,%esp

static inline uint
read_eflags(void)
{
  uint eflags;
  asm volatile("pushfl; popl %0" : "=r" (eflags));
  102886:	9c                   	pushf  
  102887:	58                   	pop    %eax
  // Cannot call cpu when interrupts are enabled:
  // result not guaranteed to last long enough to be used!
  // Would prefer to panic but even printing is chancy here:
  // everything, including cprintf, calls cpu, at least indirectly
  // through acquire and release.
  if(read_eflags()&FL_IF){
  102888:	f6 c4 02             	test   $0x2,%ah
  10288b:	74 12                	je     10289f <cpu+0x1f>
    static int n;
    if(n++ == 0)
  10288d:	a1 40 78 10 00       	mov    0x107840,%eax
  102892:	83 c0 01             	add    $0x1,%eax
  102895:	a3 40 78 10 00       	mov    %eax,0x107840
  10289a:	83 e8 01             	sub    $0x1,%eax
  10289d:	74 14                	je     1028b3 <cpu+0x33>
      cprintf("cpu called from %x with interrupts enabled\n",
        ((uint*)read_ebp())[1]);
  }

  if(lapic)
  10289f:	8b 15 98 aa 10 00    	mov    0x10aa98,%edx
  1028a5:	31 c0                	xor    %eax,%eax
  1028a7:	85 d2                	test   %edx,%edx
  1028a9:	74 06                	je     1028b1 <cpu+0x31>
    return lapic[ID]>>24;
  1028ab:	8b 42 20             	mov    0x20(%edx),%eax
  1028ae:	c1 e8 18             	shr    $0x18,%eax
  return 0;
}
  1028b1:	c9                   	leave  
  1028b2:	c3                   	ret    
static inline uint
read_ebp(void)
{
  uint ebp;
  
  asm volatile("movl %%ebp, %0" : "=a" (ebp));
  1028b3:	89 e8                	mov    %ebp,%eax
  // everything, including cprintf, calls cpu, at least indirectly
  // through acquire and release.
  if(read_eflags()&FL_IF){
    static int n;
    if(n++ == 0)
      cprintf("cpu called from %x with interrupts enabled\n",
  1028b5:	8b 40 04             	mov    0x4(%eax),%eax
  1028b8:	c7 04 24 50 6b 10 00 	movl   $0x106b50,(%esp)
  1028bf:	89 44 24 04          	mov    %eax,0x4(%esp)
  1028c3:	e8 a8 de ff ff       	call   100770 <cprintf>
  1028c8:	eb d5                	jmp    10289f <cpu+0x1f>
  1028ca:	8d b6 00 00 00 00    	lea    0x0(%esi),%esi

001028d0 <lapic_startap>:

// Start additional processor running bootstrap code at addr.
// See Appendix B of MultiProcessor Specification.
void
lapic_startap(uchar apicid, uint addr)
{
  1028d0:	55                   	push   %ebp
}

static inline void
outb(ushort port, uchar data)
{
  asm volatile("out %0,%1" : : "a" (data), "d" (port));
  1028d1:	b8 0f 00 00 00       	mov    $0xf,%eax
  1028d6:	89 e5                	mov    %esp,%ebp
  1028d8:	ba 70 00 00 00       	mov    $0x70,%edx
  1028dd:	56                   	push   %esi
  1028de:	53                   	push   %ebx
  1028df:	8b 75 0c             	mov    0xc(%ebp),%esi
  1028e2:	0f b6 5d 08          	movzbl 0x8(%ebp),%ebx
  1028e6:	ee                   	out    %al,(%dx)
  wrv[0] = 0;
  wrv[1] = addr >> 4;

  // "Universal startup algorithm."
  // Send INIT (level-triggered) interrupt to reset other CPU.
  lapicw(ICRHI, apicid<<24);
  1028e7:	b8 0a 00 00 00       	mov    $0xa,%eax
  1028ec:	b2 71                	mov    $0x71,%dl
  1028ee:	ee                   	out    %al,(%dx)
  1028ef:	c1 e3 18             	shl    $0x18,%ebx
  1028f2:	b8 c4 00 00 00       	mov    $0xc4,%eax
  1028f7:	89 da                	mov    %ebx,%edx
  // the AP startup code prior to the [universal startup algorithm]."
  outb(IO_RTC, 0xF);  // offset 0xF is shutdown code
  outb(IO_RTC+1, 0x0A);
  wrv = (ushort*)(0x40<<4 | 0x67);  // Warm reset vector
  wrv[0] = 0;
  wrv[1] = addr >> 4;
  1028f9:	c1 ee 04             	shr    $0x4,%esi
  1028fc:	66 89 35 69 04 00 00 	mov    %si,0x469
  // Send INIT (level-triggered) interrupt to reset other CPU.
  lapicw(ICRHI, apicid<<24);
  lapicw(ICRLO, INIT | LEVEL | ASSERT);
  microdelay(200);
  lapicw(ICRLO, INIT | LEVEL);
  microdelay(100);	// should be 10ms, but too slow in Bochs!
  102903:	c1 ee 08             	shr    $0x8,%esi
  // and the warm reset vector (DWORD based at 40:67) to point at
  // the AP startup code prior to the [universal startup algorithm]."
  outb(IO_RTC, 0xF);  // offset 0xF is shutdown code
  outb(IO_RTC+1, 0x0A);
  wrv = (ushort*)(0x40<<4 | 0x67);  // Warm reset vector
  wrv[0] = 0;
  102906:	66 c7 05 67 04 00 00 	movw   $0x0,0x467
  10290d:	00 00 
  // Send INIT (level-triggered) interrupt to reset other CPU.
  lapicw(ICRHI, apicid<<24);
  lapicw(ICRLO, INIT | LEVEL | ASSERT);
  microdelay(200);
  lapicw(ICRLO, INIT | LEVEL);
  microdelay(100);	// should be 10ms, but too slow in Bochs!
  10290f:	81 ce 00 06 00 00    	or     $0x600,%esi
  wrv[0] = 0;
  wrv[1] = addr >> 4;

  // "Universal startup algorithm."
  // Send INIT (level-triggered) interrupt to reset other CPU.
  lapicw(ICRHI, apicid<<24);
  102915:	e8 c6 fd ff ff       	call   1026e0 <lapicw>
  lapicw(ICRLO, INIT | LEVEL | ASSERT);
  10291a:	ba 00 c5 00 00       	mov    $0xc500,%edx
  10291f:	b8 c0 00 00 00       	mov    $0xc0,%eax
  102924:	e8 b7 fd ff ff       	call   1026e0 <lapicw>
  microdelay(200);
  102929:	b8 c8 00 00 00       	mov    $0xc8,%eax
  10292e:	e8 fd fe ff ff       	call   102830 <microdelay>
  lapicw(ICRLO, INIT | LEVEL);
  102933:	ba 00 85 00 00       	mov    $0x8500,%edx
  102938:	b8 c0 00 00 00       	mov    $0xc0,%eax
  10293d:	e8 9e fd ff ff       	call   1026e0 <lapicw>
  microdelay(100);	// should be 10ms, but too slow in Bochs!
  102942:	b8 64 00 00 00       	mov    $0x64,%eax
  102947:	e8 e4 fe ff ff       	call   102830 <microdelay>
  // Regular hardware is supposed to only accept a STARTUP
  // when it is in the halted state due to an INIT.  So the second
  // should be ignored, but it is part of the official Intel algorithm.
  // Bochs complains about the second one.  Too bad for Bochs.
  for(i = 0; i < 2; i++){
    lapicw(ICRHI, apicid<<24);
  10294c:	89 da                	mov    %ebx,%edx
  10294e:	b8 c4 00 00 00       	mov    $0xc4,%eax
  102953:	e8 88 fd ff ff       	call   1026e0 <lapicw>
    lapicw(ICRLO, STARTUP | (addr>>12));
  102958:	89 f2                	mov    %esi,%edx
  10295a:	b8 c0 00 00 00       	mov    $0xc0,%eax
  10295f:	e8 7c fd ff ff       	call   1026e0 <lapicw>
    microdelay(200);
  102964:	b8 c8 00 00 00       	mov    $0xc8,%eax
  102969:	e8 c2 fe ff ff       	call   102830 <microdelay>
  // Regular hardware is supposed to only accept a STARTUP
  // when it is in the halted state due to an INIT.  So the second
  // should be ignored, but it is part of the official Intel algorithm.
  // Bochs complains about the second one.  Too bad for Bochs.
  for(i = 0; i < 2; i++){
    lapicw(ICRHI, apicid<<24);
  10296e:	89 da                	mov    %ebx,%edx
  102970:	b8 c4 00 00 00       	mov    $0xc4,%eax
  102975:	e8 66 fd ff ff       	call   1026e0 <lapicw>
    lapicw(ICRLO, STARTUP | (addr>>12));
  10297a:	89 f2                	mov    %esi,%edx
  10297c:	b8 c0 00 00 00       	mov    $0xc0,%eax
  102981:	e8 5a fd ff ff       	call   1026e0 <lapicw>
    microdelay(200);
  102986:	b8 c8 00 00 00       	mov    $0xc8,%eax
  }
}
  10298b:	5b                   	pop    %ebx
  10298c:	5e                   	pop    %esi
